
system:     file format elf32-i386


Disassembly of section .text.main:

00010000 <main-0x10>:
   10000:	18 66 90             	sbb    %ah,-0x70(%esi)
   10003:	66 90                	xchg   %ax,%ax
   10005:	66 90                	xchg   %ax,%ax
   10007:	66 90                	xchg   %ax,%ax
   10009:	66 90                	xchg   %ax,%ax
   1000b:	66 90                	xchg   %ax,%ax
   1000d:	66 90                	xchg   %ax,%ax
   1000f:	90                   	nop

00010010 <main>:
   10010:	8d 4c 24 04          	lea    0x4(%esp),%ecx
   10014:	83 e4 f0             	and    $0xfffffff0,%esp
   10017:	ff 71 fc             	pushl  -0x4(%ecx)
   1001a:	55                   	push   %ebp
   1001b:	89 e5                	mov    %esp,%ebp
   1001d:	53                   	push   %ebx
   1001e:	51                   	push   %ecx
   1001f:	e8 18 20 00 00       	call   1203c <__x86.get_pc_thunk.bx>
   10024:	81 c3 2c 30 00 00    	add    $0x302c,%ebx
   1002a:	e8 61 16 00 00       	call   11690 <set_eflags>
   1002f:	c7 c0 00 40 01 00    	mov    $0x14000,%eax
   10035:	ba 18 00 00 00       	mov    $0x18,%edx
   1003a:	05 ec 3f 00 00       	add    $0x3fec,%eax
   1003f:	fc                   	cld    
   10040:	8e da                	mov    %edx,%ds
   10042:	8e c2                	mov    %edx,%es
   10044:	8e e2                	mov    %edx,%fs
   10046:	8e ea                	mov    %edx,%gs
   10048:	8e d2                	mov    %edx,%ss
   1004a:	89 c4                	mov    %eax,%esp
   1004c:	8d 83 00 f0 ff ff    	lea    -0x1000(%ebx),%eax
   10052:	83 ec 0c             	sub    $0xc,%esp
   10055:	50                   	push   %eax
   10056:	e8 65 04 00 00       	call   104c0 <printk>
   1005b:	e8 80 11 00 00       	call   111e0 <setGdt>
   10060:	e8 eb 00 00 00       	call   10150 <setIdt>
   10065:	e8 c6 11 00 00       	call   11230 <setTSS>
   1006a:	e8 41 10 00 00       	call   110b0 <init_mm>
   1006f:	e8 1c 06 00 00       	call   10690 <init_sched>
   10074:	e8 07 05 00 00       	call   10580 <init_idle>
   10079:	e8 82 05 00 00       	call   10600 <init_task1>
   1007e:	8b 83 74 ff ff ff    	mov    -0x8c(%ebx),%eax
   10084:	83 c4 0c             	add    $0xc,%esp
   10087:	ff 30                	pushl  (%eax)
   10089:	8b 83 78 ff ff ff    	mov    -0x88(%ebx),%eax
   1008f:	ff b3 7c ff ff ff    	pushl  -0x84(%ebx)
   10095:	8b 00                	mov    (%eax),%eax
   10097:	05 00 00 01 00       	add    $0x10000,%eax
   1009c:	50                   	push   %eax
   1009d:	e8 4e 14 00 00       	call   114f0 <copy_data>
   100a2:	8d 83 13 f0 ff ff    	lea    -0xfed(%ebx),%eax
   100a8:	89 04 24             	mov    %eax,(%esp)
   100ab:	e8 10 04 00 00       	call   104c0 <printk>
   100b0:	c7 c0 6c 30 01 00    	mov    $0x1306c,%eax
   100b6:	c7 00 00 00 00 00    	movl   $0x0,(%eax)
   100bc:	e8 6f 16 00 00       	call   11730 <enable_int>
   100c1:	c7 04 24 00 00 10 00 	movl   $0x100000,(%esp)
   100c8:	6a 23                	push   $0x23
   100ca:	68 f0 bf 11 00       	push   $0x11bff0
   100cf:	6a 2b                	push   $0x2b
   100d1:	6a 2b                	push   $0x2b
   100d3:	e8 08 16 00 00       	call   116e0 <return_gate>
   100d8:	8d 65 f8             	lea    -0x8(%ebp),%esp
   100db:	31 c0                	xor    %eax,%eax
   100dd:	59                   	pop    %ecx
   100de:	5b                   	pop    %ebx
   100df:	5d                   	pop    %ebp
   100e0:	8d 61 fc             	lea    -0x4(%ecx),%esp
   100e3:	c3                   	ret    

Disassembly of section .text:

000100f0 <setInterruptHandler>:
   100f0:	55                   	push   %ebp
   100f1:	e8 4a 1f 00 00       	call   12040 <__x86.get_pc_thunk.dx>
   100f6:	81 c2 5a 2f 00 00    	add    $0x2f5a,%edx
   100fc:	89 e5                	mov    %esp,%ebp
   100fe:	53                   	push   %ebx
   100ff:	0f b7 45 10          	movzwl 0x10(%ebp),%eax
   10103:	8b 4d 08             	mov    0x8(%ebp),%ecx
   10106:	c7 c2 c0 30 01 00    	mov    $0x130c0,%edx
   1010c:	8b 5d 0c             	mov    0xc(%ebp),%ebx
   1010f:	c1 e0 0d             	shl    $0xd,%eax
   10112:	66 89 1c ca          	mov    %bx,(%edx,%ecx,8)
   10116:	c1 eb 10             	shr    $0x10,%ebx
   10119:	66 0d 00 8e          	or     $0x8e00,%ax
   1011d:	66 c7 44 ca 02 10 00 	movw   $0x10,0x2(%edx,%ecx,8)
   10124:	66 89 5c ca 06       	mov    %bx,0x6(%edx,%ecx,8)
   10129:	66 89 44 ca 04       	mov    %ax,0x4(%edx,%ecx,8)
   1012e:	5b                   	pop    %ebx
   1012f:	5d                   	pop    %ebp
   10130:	c3                   	ret    
   10131:	eb 0d                	jmp    10140 <setTrapHandler>
   10133:	90                   	nop
   10134:	90                   	nop
   10135:	90                   	nop
   10136:	90                   	nop
   10137:	90                   	nop
   10138:	90                   	nop
   10139:	90                   	nop
   1013a:	90                   	nop
   1013b:	90                   	nop
   1013c:	90                   	nop
   1013d:	90                   	nop
   1013e:	90                   	nop
   1013f:	90                   	nop

00010140 <setTrapHandler>:
   10140:	55                   	push   %ebp
   10141:	89 e5                	mov    %esp,%ebp
   10143:	5d                   	pop    %ebp
   10144:	eb aa                	jmp    100f0 <setInterruptHandler>
   10146:	8d 76 00             	lea    0x0(%esi),%esi
   10149:	8d bc 27 00 00 00 00 	lea    0x0(%edi,%eiz,1),%edi

00010150 <setIdt>:
   10150:	55                   	push   %ebp
   10151:	b8 ff 07 00 00       	mov    $0x7ff,%eax
   10156:	89 e5                	mov    %esp,%ebp
   10158:	57                   	push   %edi
   10159:	56                   	push   %esi
   1015a:	53                   	push   %ebx
   1015b:	e8 dc 1e 00 00       	call   1203c <__x86.get_pc_thunk.bx>
   10160:	81 c3 f0 2e 00 00    	add    $0x2ef0,%ebx
   10166:	83 ec 0c             	sub    $0xc,%esp
   10169:	c7 c6 c0 30 01 00    	mov    $0x130c0,%esi
   1016f:	c7 c7 a0 30 01 00    	mov    $0x130a0,%edi
   10175:	89 77 02             	mov    %esi,0x2(%edi)
   10178:	66 89 07             	mov    %ax,(%edi)
   1017b:	e8 a0 1a 00 00       	call   11c20 <set_handlers>
   10180:	c7 c0 8b 02 01 00    	mov    $0x1028b,%eax
   10186:	83 ec 08             	sub    $0x8,%esp
   10189:	c7 86 0a 01 00 00 10 	movl   $0x8e000010,0x10a(%esi)
   10190:	00 00 8e 
   10193:	c7 86 02 01 00 00 10 	movl   $0x8e000010,0x102(%esi)
   1019a:	00 00 8e 
   1019d:	66 89 86 08 01 00 00 	mov    %ax,0x108(%esi)
   101a4:	c1 e8 10             	shr    $0x10,%eax
   101a7:	66 89 86 0e 01 00 00 	mov    %ax,0x10e(%esi)
   101ae:	c7 c0 b8 02 01 00    	mov    $0x102b8,%eax
   101b4:	66 89 86 00 01 00 00 	mov    %ax,0x100(%esi)
   101bb:	c1 e8 10             	shr    $0x10,%eax
   101be:	66 89 86 06 01 00 00 	mov    %ax,0x106(%esi)
   101c5:	6a 10                	push   $0x10
   101c7:	68 74 01 00 00       	push   $0x174
   101cc:	e8 68 01 00 00       	call   10339 <writeMSR>
   101d1:	c7 c0 00 40 01 00    	mov    $0x14000,%eax
   101d7:	5a                   	pop    %edx
   101d8:	59                   	pop    %ecx
   101d9:	05 00 20 00 00       	add    $0x2000,%eax
   101de:	50                   	push   %eax
   101df:	68 75 01 00 00       	push   $0x175
   101e4:	e8 50 01 00 00       	call   10339 <writeMSR>
   101e9:	5e                   	pop    %esi
   101ea:	58                   	pop    %eax
   101eb:	ff b3 f8 ff ff ff    	pushl  -0x8(%ebx)
   101f1:	68 76 01 00 00       	push   $0x176
   101f6:	e8 3e 01 00 00       	call   10339 <writeMSR>
   101fb:	89 3c 24             	mov    %edi,(%esp)
   101fe:	e8 9d 14 00 00       	call   116a0 <set_idt_reg>
   10203:	83 c4 10             	add    $0x10,%esp
   10206:	8d 65 f4             	lea    -0xc(%ebp),%esp
   10209:	5b                   	pop    %ebx
   1020a:	5e                   	pop    %esi
   1020b:	5f                   	pop    %edi
   1020c:	5d                   	pop    %ebp
   1020d:	c3                   	ret    
   1020e:	66 90                	xchg   %ax,%ax

00010210 <keyboard_routine>:
   10210:	55                   	push   %ebp
   10211:	89 e5                	mov    %esp,%ebp
   10213:	53                   	push   %ebx
   10214:	e8 23 1e 00 00       	call   1203c <__x86.get_pc_thunk.bx>
   10219:	81 c3 37 2e 00 00    	add    $0x2e37,%ebx
   1021f:	83 ec 10             	sub    $0x10,%esp
   10222:	6a 60                	push   $0x60
   10224:	e8 77 01 00 00       	call   103a0 <inb>
   10229:	83 c4 10             	add    $0x10,%esp
   1022c:	84 c0                	test   %al,%al
   1022e:	78 25                	js     10255 <keyboard_routine+0x45>
   10230:	0f b6 c0             	movzbl %al,%eax
   10233:	ba 43 00 00 00       	mov    $0x43,%edx
   10238:	0f be 84 03 90 ff ff 	movsbl -0x70(%ebx,%eax,1),%eax
   1023f:	ff 
   10240:	84 c0                	test   %al,%al
   10242:	0f 44 c2             	cmove  %edx,%eax
   10245:	83 ec 04             	sub    $0x4,%esp
   10248:	50                   	push   %eax
   10249:	6a 00                	push   $0x0
   1024b:	6a 00                	push   $0x0
   1024d:	e8 0e 02 00 00       	call   10460 <printc_xy>
   10252:	83 c4 10             	add    $0x10,%esp
   10255:	8b 5d fc             	mov    -0x4(%ebp),%ebx
   10258:	c9                   	leave  
   10259:	c3                   	ret    
   1025a:	8d b6 00 00 00 00    	lea    0x0(%esi),%esi

00010260 <clock_routine>:
   10260:	55                   	push   %ebp
   10261:	89 e5                	mov    %esp,%ebp
   10263:	53                   	push   %ebx
   10264:	e8 d3 1d 00 00       	call   1203c <__x86.get_pc_thunk.bx>
   10269:	81 c3 e7 2d 00 00    	add    $0x2de7,%ebx
   1026f:	83 ec 04             	sub    $0x4,%esp
   10272:	c7 c0 6c 30 01 00    	mov    $0x1306c,%eax
   10278:	83 00 01             	addl   $0x1,(%eax)
   1027b:	e8 e0 05 00 00       	call   10860 <schedule>
   10280:	e8 1b 16 00 00       	call   118a0 <zeos_show_clock>
   10285:	83 c4 04             	add    $0x4,%esp
   10288:	5b                   	pop    %ebx
   10289:	5d                   	pop    %ebp
   1028a:	c3                   	ret    

0001028b <keyboard_handler>:
   1028b:	0f a8                	push   %gs
   1028d:	0f a0                	push   %fs
   1028f:	06                   	push   %es
   10290:	1e                   	push   %ds
   10291:	50                   	push   %eax
   10292:	55                   	push   %ebp
   10293:	57                   	push   %edi
   10294:	56                   	push   %esi
   10295:	52                   	push   %edx
   10296:	51                   	push   %ecx
   10297:	53                   	push   %ebx
   10298:	ba 18 00 00 00       	mov    $0x18,%edx
   1029d:	8e da                	mov    %edx,%ds
   1029f:	8e c2                	mov    %edx,%es
   102a1:	e8 6a ff ff ff       	call   10210 <keyboard_routine>
   102a6:	5b                   	pop    %ebx
   102a7:	59                   	pop    %ecx
   102a8:	5a                   	pop    %edx
   102a9:	5e                   	pop    %esi
   102aa:	5f                   	pop    %edi
   102ab:	5d                   	pop    %ebp
   102ac:	58                   	pop    %eax
   102ad:	1f                   	pop    %ds
   102ae:	07                   	pop    %es
   102af:	0f a1                	pop    %fs
   102b1:	0f a9                	pop    %gs
   102b3:	b0 20                	mov    $0x20,%al
   102b5:	e6 20                	out    %al,$0x20
   102b7:	cf                   	iret   

000102b8 <clock_handler>:
   102b8:	0f a8                	push   %gs
   102ba:	0f a0                	push   %fs
   102bc:	06                   	push   %es
   102bd:	1e                   	push   %ds
   102be:	50                   	push   %eax
   102bf:	55                   	push   %ebp
   102c0:	57                   	push   %edi
   102c1:	56                   	push   %esi
   102c2:	52                   	push   %edx
   102c3:	51                   	push   %ecx
   102c4:	53                   	push   %ebx
   102c5:	ba 18 00 00 00       	mov    $0x18,%edx
   102ca:	8e da                	mov    %edx,%ds
   102cc:	8e c2                	mov    %edx,%es
   102ce:	b0 20                	mov    $0x20,%al
   102d0:	e6 20                	out    %al,$0x20
   102d2:	e8 89 ff ff ff       	call   10260 <clock_routine>
   102d7:	5b                   	pop    %ebx
   102d8:	59                   	pop    %ecx
   102d9:	5a                   	pop    %edx
   102da:	5e                   	pop    %esi
   102db:	5f                   	pop    %edi
   102dc:	5d                   	pop    %ebp
   102dd:	58                   	pop    %eax
   102de:	1f                   	pop    %ds
   102df:	07                   	pop    %es
   102e0:	0f a1                	pop    %fs
   102e2:	0f a9                	pop    %gs
   102e4:	cf                   	iret   

000102e5 <system_call_handler>:
   102e5:	6a 2b                	push   $0x2b
   102e7:	55                   	push   %ebp
   102e8:	9c                   	pushf  
   102e9:	6a 23                	push   $0x23
   102eb:	ff 75 04             	pushl  0x4(%ebp)
   102ee:	0f a8                	push   %gs
   102f0:	0f a0                	push   %fs
   102f2:	06                   	push   %es
   102f3:	1e                   	push   %ds
   102f4:	50                   	push   %eax
   102f5:	55                   	push   %ebp
   102f6:	57                   	push   %edi
   102f7:	56                   	push   %esi
   102f8:	52                   	push   %edx
   102f9:	51                   	push   %ecx
   102fa:	53                   	push   %ebx
   102fb:	ba 18 00 00 00       	mov    $0x18,%edx
   10300:	8e da                	mov    %edx,%ds
   10302:	8e c2                	mov    %edx,%es
   10304:	83 f8 00             	cmp    $0x0,%eax
   10307:	7c 10                	jl     10319 <err>
   10309:	3d 15 00 00 00       	cmp    $0x15,%eax
   1030e:	7f 09                	jg     10319 <err>
   10310:	ff 14 85 48 03 01 00 	call   *0x10348(,%eax,4)
   10317:	eb 05                	jmp    1031e <fin>

00010319 <err>:
   10319:	b8 da ff ff ff       	mov    $0xffffffda,%eax

0001031e <fin>:
   1031e:	89 44 24 18          	mov    %eax,0x18(%esp)
   10322:	5b                   	pop    %ebx
   10323:	59                   	pop    %ecx
   10324:	5a                   	pop    %edx
   10325:	5e                   	pop    %esi
   10326:	5f                   	pop    %edi
   10327:	5d                   	pop    %ebp
   10328:	58                   	pop    %eax
   10329:	1f                   	pop    %ds
   1032a:	07                   	pop    %es
   1032b:	0f a1                	pop    %fs
   1032d:	0f a9                	pop    %gs
   1032f:	8b 14 24             	mov    (%esp),%edx
   10332:	8b 4c 24 0c          	mov    0xc(%esp),%ecx
   10336:	fb                   	sti    
   10337:	0f 35                	sysexit 

00010339 <writeMSR>:
   10339:	55                   	push   %ebp
   1033a:	89 e5                	mov    %esp,%ebp
   1033c:	8b 4d 08             	mov    0x8(%ebp),%ecx
   1033f:	8b 45 0c             	mov    0xc(%ebp),%eax
   10342:	31 d2                	xor    %edx,%edx
   10344:	0f 30                	wrmsr  
   10346:	5d                   	pop    %ebp
   10347:	c3                   	ret    

00010348 <sys_call_table>:
   10348:	60                   	pusha  
   10349:	09 01                	or     %eax,(%ecx)
   1034b:	00 60 09             	add    %ah,0x9(%eax)
   1034e:	01 00                	add    %eax,(%eax)
   10350:	90                   	nop
   10351:	09 01                	or     %eax,(%ecx)
   10353:	00 60 09             	add    %ah,0x9(%eax)
   10356:	01 00                	add    %eax,(%eax)
   10358:	d0 0d 01 00 60 09    	rorb   0x9600001
   1035e:	01 00                	add    %eax,(%eax)
   10360:	60                   	pusha  
   10361:	09 01                	or     %eax,(%ecx)
   10363:	00 60 09             	add    %ah,0x9(%eax)
   10366:	01 00                	add    %eax,(%eax)
   10368:	60                   	pusha  
   10369:	09 01                	or     %eax,(%ecx)
   1036b:	00 60 09             	add    %ah,0x9(%eax)
   1036e:	01 00                	add    %eax,(%eax)
   10370:	b0 0e                	mov    $0xe,%al
   10372:	01 00                	add    %eax,(%eax)
   10374:	60                   	pusha  
   10375:	09 01                	or     %eax,(%ecx)
   10377:	00 60 09             	add    %ah,0x9(%eax)
   1037a:	01 00                	add    %eax,(%eax)
   1037c:	60                   	pusha  
   1037d:	09 01                	or     %eax,(%ecx)
   1037f:	00 60 09             	add    %ah,0x9(%eax)
   10382:	01 00                	add    %eax,(%eax)
   10384:	60                   	pusha  
   10385:	09 01                	or     %eax,(%ecx)
   10387:	00 60 09             	add    %ah,0x9(%eax)
   1038a:	01 00                	add    %eax,(%eax)
   1038c:	60                   	pusha  
   1038d:	09 01                	or     %eax,(%ecx)
   1038f:	00 60 09             	add    %ah,0x9(%eax)
   10392:	01 00                	add    %eax,(%eax)
   10394:	60                   	pusha  
   10395:	09 01                	or     %eax,(%ecx)
   10397:	00 70 09             	add    %dh,0x9(%eax)
   1039a:	01 00                	add    %eax,(%eax)
   1039c:	66 90                	xchg   %ax,%ax
   1039e:	66 90                	xchg   %ax,%ax

000103a0 <inb>:
   103a0:	55                   	push   %ebp
   103a1:	89 e5                	mov    %esp,%ebp
   103a3:	8b 55 08             	mov    0x8(%ebp),%edx
   103a6:	ec                   	in     (%dx),%al
   103a7:	5d                   	pop    %ebp
   103a8:	c3                   	ret    
   103a9:	8d b4 26 00 00 00 00 	lea    0x0(%esi,%eiz,1),%esi

000103b0 <printc>:
   103b0:	55                   	push   %ebp
   103b1:	89 e5                	mov    %esp,%ebp
   103b3:	57                   	push   %edi
   103b4:	56                   	push   %esi
   103b5:	8b 45 08             	mov    0x8(%ebp),%eax
   103b8:	53                   	push   %ebx
   103b9:	e8 7e 1c 00 00       	call   1203c <__x86.get_pc_thunk.bx>
   103be:	81 c3 92 2c 00 00    	add    $0x2c92,%ebx
   103c4:	88 c0                	mov    %al,%al
   103c6:	e6 e9                	out    %al,$0xe9
   103c8:	3c 0a                	cmp    $0xa,%al
   103ca:	0f b6 93 f2 ff ff ff 	movzbl -0xe(%ebx),%edx
   103d1:	74 5d                	je     10430 <printc+0x80>
   103d3:	c7 c7 c0 38 01 00    	mov    $0x138c0,%edi
   103d9:	0f b6 c8             	movzbl %al,%ecx
   103dc:	8d 04 92             	lea    (%edx,%edx,4),%eax
   103df:	80 cd 02             	or     $0x2,%ch
   103e2:	c1 e0 04             	shl    $0x4,%eax
   103e5:	0f b6 37             	movzbl (%edi),%esi
   103e8:	8d b4 30 00 c0 05 00 	lea    0x5c000(%eax,%esi,1),%esi
   103ef:	0f b6 07             	movzbl (%edi),%eax
   103f2:	01 f6                	add    %esi,%esi
   103f4:	83 c0 01             	add    $0x1,%eax
   103f7:	3c 4f                	cmp    $0x4f,%al
   103f9:	77 0d                	ja     10408 <printc+0x58>
   103fb:	88 07                	mov    %al,(%edi)
   103fd:	66 89 0e             	mov    %cx,(%esi)
   10400:	5b                   	pop    %ebx
   10401:	5e                   	pop    %esi
   10402:	5f                   	pop    %edi
   10403:	5d                   	pop    %ebp
   10404:	c3                   	ret    
   10405:	8d 76 00             	lea    0x0(%esi),%esi
   10408:	c6 07 00             	movb   $0x0,(%edi)
   1040b:	8d 7a 01             	lea    0x1(%edx),%edi
   1040e:	ba 1f 85 eb 51       	mov    $0x51eb851f,%edx
   10413:	89 f8                	mov    %edi,%eax
   10415:	f7 e2                	mul    %edx
   10417:	c1 ea 03             	shr    $0x3,%edx
   1041a:	8d 04 92             	lea    (%edx,%edx,4),%eax
   1041d:	8d 04 80             	lea    (%eax,%eax,4),%eax
   10420:	29 c7                	sub    %eax,%edi
   10422:	89 fa                	mov    %edi,%edx
   10424:	88 93 f2 ff ff ff    	mov    %dl,-0xe(%ebx)
   1042a:	eb d1                	jmp    103fd <printc+0x4d>
   1042c:	8d 74 26 00          	lea    0x0(%esi,%eiz,1),%esi
   10430:	c7 c0 c0 38 01 00    	mov    $0x138c0,%eax
   10436:	8d 4a 01             	lea    0x1(%edx),%ecx
   10439:	ba 1f 85 eb 51       	mov    $0x51eb851f,%edx
   1043e:	c6 00 00             	movb   $0x0,(%eax)
   10441:	89 c8                	mov    %ecx,%eax
   10443:	f7 e2                	mul    %edx
   10445:	c1 ea 03             	shr    $0x3,%edx
   10448:	8d 04 92             	lea    (%edx,%edx,4),%eax
   1044b:	8d 04 80             	lea    (%eax,%eax,4),%eax
   1044e:	29 c1                	sub    %eax,%ecx
   10450:	88 8b f2 ff ff ff    	mov    %cl,-0xe(%ebx)
   10456:	5b                   	pop    %ebx
   10457:	5e                   	pop    %esi
   10458:	5f                   	pop    %edi
   10459:	5d                   	pop    %ebp
   1045a:	c3                   	ret    
   1045b:	90                   	nop
   1045c:	8d 74 26 00          	lea    0x0(%esi,%eiz,1),%esi

00010460 <printc_xy>:
   10460:	55                   	push   %ebp
   10461:	89 e5                	mov    %esp,%ebp
   10463:	57                   	push   %edi
   10464:	56                   	push   %esi
   10465:	53                   	push   %ebx
   10466:	e8 d1 1b 00 00       	call   1203c <__x86.get_pc_thunk.bx>
   1046b:	81 c3 e5 2b 00 00    	add    $0x2be5,%ebx
   10471:	83 ec 04             	sub    $0x4,%esp
   10474:	8b 45 08             	mov    0x8(%ebp),%eax
   10477:	c7 c6 c0 38 01 00    	mov    $0x138c0,%esi
   1047d:	0f b6 bb f2 ff ff ff 	movzbl -0xe(%ebx),%edi
   10484:	0f b6 16             	movzbl (%esi),%edx
   10487:	88 06                	mov    %al,(%esi)
   10489:	8b 45 0c             	mov    0xc(%ebp),%eax
   1048c:	88 83 f2 ff ff ff    	mov    %al,-0xe(%ebx)
   10492:	0f be 45 10          	movsbl 0x10(%ebp),%eax
   10496:	88 55 f3             	mov    %dl,-0xd(%ebp)
   10499:	50                   	push   %eax
   1049a:	e8 11 ff ff ff       	call   103b0 <printc>
   1049f:	0f b6 55 f3          	movzbl -0xd(%ebp),%edx
   104a3:	89 f8                	mov    %edi,%eax
   104a5:	88 83 f2 ff ff ff    	mov    %al,-0xe(%ebx)
   104ab:	58                   	pop    %eax
   104ac:	88 16                	mov    %dl,(%esi)
   104ae:	8d 65 f4             	lea    -0xc(%ebp),%esp
   104b1:	5b                   	pop    %ebx
   104b2:	5e                   	pop    %esi
   104b3:	5f                   	pop    %edi
   104b4:	5d                   	pop    %ebp
   104b5:	c3                   	ret    
   104b6:	8d 76 00             	lea    0x0(%esi),%esi
   104b9:	8d bc 27 00 00 00 00 	lea    0x0(%edi,%eiz,1),%edi

000104c0 <printk>:
   104c0:	55                   	push   %ebp
   104c1:	89 e5                	mov    %esp,%ebp
   104c3:	53                   	push   %ebx
   104c4:	8b 5d 08             	mov    0x8(%ebp),%ebx
   104c7:	0f be 03             	movsbl (%ebx),%eax
   104ca:	84 c0                	test   %al,%al
   104cc:	74 1c                	je     104ea <printk+0x2a>
   104ce:	83 c3 01             	add    $0x1,%ebx
   104d1:	8d b4 26 00 00 00 00 	lea    0x0(%esi,%eiz,1),%esi
   104d8:	50                   	push   %eax
   104d9:	83 c3 01             	add    $0x1,%ebx
   104dc:	e8 cf fe ff ff       	call   103b0 <printc>
   104e1:	0f be 43 ff          	movsbl -0x1(%ebx),%eax
   104e5:	5a                   	pop    %edx
   104e6:	84 c0                	test   %al,%al
   104e8:	75 ee                	jne    104d8 <printk+0x18>
   104ea:	8b 5d fc             	mov    -0x4(%ebp),%ebx
   104ed:	c9                   	leave  
   104ee:	c3                   	ret    
   104ef:	90                   	nop

000104f0 <cpu_idle>:
   104f0:	55                   	push   %ebp
   104f1:	89 e5                	mov    %esp,%ebp
   104f3:	fb                   	sti    
   104f4:	eb fe                	jmp    104f4 <cpu_idle+0x4>
   104f6:	8d 76 00             	lea    0x0(%esi),%esi
   104f9:	8d bc 27 00 00 00 00 	lea    0x0(%edi,%eiz,1),%edi

00010500 <list_head_to_task_struct>:
   10500:	55                   	push   %ebp
   10501:	89 e5                	mov    %esp,%ebp
   10503:	8b 45 08             	mov    0x8(%ebp),%eax
   10506:	5d                   	pop    %ebp
   10507:	25 00 f0 ff ff       	and    $0xfffff000,%eax
   1050c:	c3                   	ret    
   1050d:	8d 76 00             	lea    0x0(%esi),%esi

00010510 <get_DIR>:
   10510:	55                   	push   %ebp
   10511:	89 e5                	mov    %esp,%ebp
   10513:	8b 45 08             	mov    0x8(%ebp),%eax
   10516:	5d                   	pop    %ebp
   10517:	8b 40 04             	mov    0x4(%eax),%eax
   1051a:	c3                   	ret    
   1051b:	90                   	nop
   1051c:	8d 74 26 00          	lea    0x0(%esi,%eiz,1),%esi

00010520 <get_PT>:
   10520:	55                   	push   %ebp
   10521:	89 e5                	mov    %esp,%ebp
   10523:	8b 45 08             	mov    0x8(%ebp),%eax
   10526:	5d                   	pop    %ebp
   10527:	8b 40 04             	mov    0x4(%eax),%eax
   1052a:	8b 00                	mov    (%eax),%eax
   1052c:	25 00 f0 ff ff       	and    $0xfffff000,%eax
   10531:	c3                   	ret    
   10532:	8d b4 26 00 00 00 00 	lea    0x0(%esi,%eiz,1),%esi
   10539:	8d bc 27 00 00 00 00 	lea    0x0(%edi,%eiz,1),%edi

00010540 <allocate_DIR>:
   10540:	55                   	push   %ebp
   10541:	e8 02 1b 00 00       	call   12048 <__x86.get_pc_thunk.cx>
   10546:	81 c1 0a 2b 00 00    	add    $0x2b0a,%ecx
   1054c:	89 e5                	mov    %esp,%ebp
   1054e:	53                   	push   %ebx
   1054f:	8b 55 08             	mov    0x8(%ebp),%edx
   10552:	8d 81 b0 0f 00 00    	lea    0xfb0(%ecx),%eax
   10558:	89 d3                	mov    %edx,%ebx
   1055a:	29 c3                	sub    %eax,%ebx
   1055c:	89 d8                	mov    %ebx,%eax
   1055e:	25 00 f0 ff ff       	and    $0xfffff000,%eax
   10563:	81 c0 00 80 02 00    	add    $0x28000,%eax
   10569:	89 42 04             	mov    %eax,0x4(%edx)
   1056c:	b8 01 00 00 00       	mov    $0x1,%eax
   10571:	5b                   	pop    %ebx
   10572:	5d                   	pop    %ebp
   10573:	c3                   	ret    
   10574:	8d b6 00 00 00 00    	lea    0x0(%esi),%esi
   1057a:	8d bf 00 00 00 00    	lea    0x0(%edi),%edi

00010580 <init_idle>:
   10580:	55                   	push   %ebp
   10581:	89 e5                	mov    %esp,%ebp
   10583:	56                   	push   %esi
   10584:	53                   	push   %ebx
   10585:	e8 b2 1a 00 00       	call   1203c <__x86.get_pc_thunk.bx>
   1058a:	81 c3 c6 2a 00 00    	add    $0x2ac6,%ebx
   10590:	83 ec 0c             	sub    $0xc,%esp
   10593:	c7 c0 74 30 01 00    	mov    $0x13074,%eax
   10599:	8b 30                	mov    (%eax),%esi
   1059b:	56                   	push   %esi
   1059c:	e8 ff 11 00 00       	call   117a0 <list_del>
   105a1:	89 f0                	mov    %esi,%eax
   105a3:	8d 93 b0 0f 00 00    	lea    0xfb0(%ebx),%edx
   105a9:	83 c4 10             	add    $0x10,%esp
   105ac:	25 00 f0 ff ff       	and    $0xfffff000,%eax
   105b1:	89 c1                	mov    %eax,%ecx
   105b3:	c7 00 00 00 00 00    	movl   $0x0,(%eax)
   105b9:	c7 80 f8 0f 00 00 00 	movl   $0x0,0xff8(%eax)
   105c0:	00 00 00 
   105c3:	29 d1                	sub    %edx,%ecx
   105c5:	89 ca                	mov    %ecx,%edx
   105c7:	81 e2 00 f0 ff ff    	and    $0xfffff000,%edx
   105cd:	81 c2 00 80 02 00    	add    $0x28000,%edx
   105d3:	89 50 04             	mov    %edx,0x4(%eax)
   105d6:	8d 93 a0 d4 ff ff    	lea    -0x2b60(%ebx),%edx
   105dc:	89 90 fc 0f 00 00    	mov    %edx,0xffc(%eax)
   105e2:	8d 90 f8 0f 00 00    	lea    0xff8(%eax),%edx
   105e8:	89 50 10             	mov    %edx,0x10(%eax)
   105eb:	c7 c2 70 30 01 00    	mov    $0x13070,%edx
   105f1:	89 02                	mov    %eax,(%edx)
   105f3:	8d 65 f8             	lea    -0x8(%ebp),%esp
   105f6:	5b                   	pop    %ebx
   105f7:	5e                   	pop    %esi
   105f8:	5d                   	pop    %ebp
   105f9:	c3                   	ret    
   105fa:	8d b6 00 00 00 00    	lea    0x0(%esi),%esi

00010600 <init_task1>:
   10600:	55                   	push   %ebp
   10601:	89 e5                	mov    %esp,%ebp
   10603:	56                   	push   %esi
   10604:	53                   	push   %ebx
   10605:	e8 32 1a 00 00       	call   1203c <__x86.get_pc_thunk.bx>
   1060a:	81 c3 46 2a 00 00    	add    $0x2a46,%ebx
   10610:	83 ec 0c             	sub    $0xc,%esp
   10613:	c7 c0 74 30 01 00    	mov    $0x13074,%eax
   10619:	8b 30                	mov    (%eax),%esi
   1061b:	56                   	push   %esi
   1061c:	81 e6 00 f0 ff ff    	and    $0xfffff000,%esi
   10622:	e8 79 11 00 00       	call   117a0 <list_del>
   10627:	8d 83 b0 0f 00 00    	lea    0xfb0(%ebx),%eax
   1062d:	89 f1                	mov    %esi,%ecx
   1062f:	c7 06 01 00 00 00    	movl   $0x1,(%esi)
   10635:	c7 46 14 64 00 00 00 	movl   $0x64,0x14(%esi)
   1063c:	29 c1                	sub    %eax,%ecx
   1063e:	89 c8                	mov    %ecx,%eax
   10640:	25 00 f0 ff ff       	and    $0xfffff000,%eax
   10645:	81 c0 00 80 02 00    	add    $0x28000,%eax
   1064b:	89 46 04             	mov    %eax,0x4(%esi)
   1064e:	89 34 24             	mov    %esi,(%esp)
   10651:	e8 6a 09 00 00       	call   10fc0 <set_user_pages>
   10656:	c7 c2 00 39 01 00    	mov    $0x13900,%edx
   1065c:	8d 86 00 10 00 00    	lea    0x1000(%esi),%eax
   10662:	89 42 04             	mov    %eax,0x4(%edx)
   10665:	5a                   	pop    %edx
   10666:	59                   	pop    %ecx
   10667:	50                   	push   %eax
   10668:	68 75 01 00 00       	push   $0x175
   1066d:	e8 c7 fc ff ff       	call   10339 <writeMSR>
   10672:	58                   	pop    %eax
   10673:	ff 76 04             	pushl  0x4(%esi)
   10676:	e8 15 0a 00 00       	call   11090 <set_cr3>
   1067b:	83 c4 10             	add    $0x10,%esp
   1067e:	8d 65 f8             	lea    -0x8(%ebp),%esp
   10681:	5b                   	pop    %ebx
   10682:	5e                   	pop    %esi
   10683:	5d                   	pop    %ebp
   10684:	c3                   	ret    
   10685:	8d 74 26 00          	lea    0x0(%esi,%eiz,1),%esi
   10689:	8d bc 27 00 00 00 00 	lea    0x0(%edi,%eiz,1),%edi

00010690 <init_sched>:
   10690:	55                   	push   %ebp
   10691:	89 e5                	mov    %esp,%ebp
   10693:	57                   	push   %edi
   10694:	56                   	push   %esi
   10695:	53                   	push   %ebx
   10696:	e8 a1 19 00 00       	call   1203c <__x86.get_pc_thunk.bx>
   1069b:	81 c3 b5 29 00 00    	add    $0x29b5,%ebx
   106a1:	83 ec 28             	sub    $0x28,%esp
   106a4:	c7 c6 74 30 01 00    	mov    $0x13074,%esi
   106aa:	8d bb b8 0f 00 00    	lea    0xfb8(%ebx),%edi
   106b0:	56                   	push   %esi
   106b1:	e8 9a 10 00 00       	call   11750 <INIT_LIST_HEAD>
   106b6:	58                   	pop    %eax
   106b7:	ff b3 fc ff ff ff    	pushl  -0x4(%ebx)
   106bd:	e8 8e 10 00 00       	call   11750 <INIT_LIST_HEAD>
   106c2:	8d 83 b8 af 00 00    	lea    0xafb8(%ebx),%eax
   106c8:	83 c4 10             	add    $0x10,%esp
   106cb:	89 45 e4             	mov    %eax,-0x1c(%ebp)
   106ce:	66 90                	xchg   %ax,%ax
   106d0:	83 ec 08             	sub    $0x8,%esp
   106d3:	56                   	push   %esi
   106d4:	57                   	push   %edi
   106d5:	81 c7 00 10 00 00    	add    $0x1000,%edi
   106db:	e8 a0 10 00 00       	call   11780 <list_add_tail>
   106e0:	83 c4 10             	add    $0x10,%esp
   106e3:	3b 7d e4             	cmp    -0x1c(%ebp),%edi
   106e6:	75 e8                	jne    106d0 <init_sched+0x40>
   106e8:	8d 65 f4             	lea    -0xc(%ebp),%esp
   106eb:	5b                   	pop    %ebx
   106ec:	5e                   	pop    %esi
   106ed:	5f                   	pop    %edi
   106ee:	5d                   	pop    %ebp
   106ef:	c3                   	ret    

000106f0 <current>:
   106f0:	55                   	push   %ebp
   106f1:	89 e5                	mov    %esp,%ebp
   106f3:	89 e0                	mov    %esp,%eax
   106f5:	25 00 f0 ff ff       	and    $0xfffff000,%eax
   106fa:	5d                   	pop    %ebp
   106fb:	c3                   	ret    
   106fc:	8d 74 26 00          	lea    0x0(%esi,%eiz,1),%esi

00010700 <inner_task_switch>:
   10700:	55                   	push   %ebp
   10701:	89 e5                	mov    %esp,%ebp
   10703:	57                   	push   %edi
   10704:	56                   	push   %esi
   10705:	53                   	push   %ebx
   10706:	e8 31 19 00 00       	call   1203c <__x86.get_pc_thunk.bx>
   1070b:	81 c3 45 29 00 00    	add    $0x2945,%ebx
   10711:	83 ec 14             	sub    $0x14,%esp
   10714:	8b 75 08             	mov    0x8(%ebp),%esi
   10717:	c7 c2 00 39 01 00    	mov    $0x13900,%edx
   1071d:	8d 86 00 10 00 00    	lea    0x1000(%esi),%eax
   10723:	89 42 04             	mov    %eax,0x4(%edx)
   10726:	50                   	push   %eax
   10727:	68 75 01 00 00       	push   $0x175
   1072c:	e8 08 fc ff ff       	call   10339 <writeMSR>
   10731:	58                   	pop    %eax
   10732:	ff 76 04             	pushl  0x4(%esi)
   10735:	e8 56 09 00 00       	call   11090 <set_cr3>
   1073a:	89 e7                	mov    %esp,%edi
   1073c:	81 e7 00 f0 ff ff    	and    $0xfffff000,%edi
   10742:	e8 bf 10 00 00       	call   11806 <getebp>
   10747:	89 47 10             	mov    %eax,0x10(%edi)
   1074a:	5a                   	pop    %edx
   1074b:	ff 76 10             	pushl  0x10(%esi)
   1074e:	e8 b6 10 00 00       	call   11809 <setesp>
   10753:	83 c4 10             	add    $0x10,%esp
   10756:	8d 65 f4             	lea    -0xc(%ebp),%esp
   10759:	5b                   	pop    %ebx
   1075a:	5e                   	pop    %esi
   1075b:	5f                   	pop    %edi
   1075c:	5d                   	pop    %ebp
   1075d:	c3                   	ret    
   1075e:	66 90                	xchg   %ax,%ax

00010760 <update_sched_data_rr>:
   10760:	e8 df 18 00 00       	call   12044 <__x86.get_pc_thunk.ax>
   10765:	05 eb 28 00 00       	add    $0x28eb,%eax
   1076a:	55                   	push   %ebp
   1076b:	c7 c2 7c 30 01 00    	mov    $0x1307c,%edx
   10771:	89 e5                	mov    %esp,%ebp
   10773:	8b 02                	mov    (%edx),%eax
   10775:	85 c0                	test   %eax,%eax
   10777:	74 05                	je     1077e <update_sched_data_rr+0x1e>
   10779:	83 e8 01             	sub    $0x1,%eax
   1077c:	89 02                	mov    %eax,(%edx)
   1077e:	5d                   	pop    %ebp
   1077f:	c3                   	ret    

00010780 <update_process_state_rr>:
   10780:	55                   	push   %ebp
   10781:	89 e5                	mov    %esp,%ebp
   10783:	57                   	push   %edi
   10784:	56                   	push   %esi
   10785:	53                   	push   %ebx
   10786:	e8 b1 18 00 00       	call   1203c <__x86.get_pc_thunk.bx>
   1078b:	81 c3 c5 28 00 00    	add    $0x28c5,%ebx
   10791:	83 ec 18             	sub    $0x18,%esp
   10794:	8b 45 08             	mov    0x8(%ebp),%eax
   10797:	8b 7d 0c             	mov    0xc(%ebp),%edi
   1079a:	8d 70 08             	lea    0x8(%eax),%esi
   1079d:	56                   	push   %esi
   1079e:	e8 fd 0f 00 00       	call   117a0 <list_del>
   107a3:	83 c4 10             	add    $0x10,%esp
   107a6:	85 ff                	test   %edi,%edi
   107a8:	74 0d                	je     107b7 <update_process_state_rr+0x37>
   107aa:	83 ec 08             	sub    $0x8,%esp
   107ad:	57                   	push   %edi
   107ae:	56                   	push   %esi
   107af:	e8 cc 0f 00 00       	call   11780 <list_add_tail>
   107b4:	83 c4 10             	add    $0x10,%esp
   107b7:	8d 65 f4             	lea    -0xc(%ebp),%esp
   107ba:	5b                   	pop    %ebx
   107bb:	5e                   	pop    %esi
   107bc:	5f                   	pop    %edi
   107bd:	5d                   	pop    %ebp
   107be:	c3                   	ret    
   107bf:	90                   	nop

000107c0 <needs_sched_rr>:
   107c0:	55                   	push   %ebp
   107c1:	89 e5                	mov    %esp,%ebp
   107c3:	53                   	push   %ebx
   107c4:	e8 73 18 00 00       	call   1203c <__x86.get_pc_thunk.bx>
   107c9:	81 c3 87 28 00 00    	add    $0x2887,%ebx
   107cf:	83 ec 04             	sub    $0x4,%esp
   107d2:	c7 c2 7c 30 01 00    	mov    $0x1307c,%edx
   107d8:	8b 02                	mov    (%edx),%eax
   107da:	85 c0                	test   %eax,%eax
   107dc:	74 0a                	je     107e8 <needs_sched_rr+0x28>
   107de:	31 c0                	xor    %eax,%eax
   107e0:	8b 5d fc             	mov    -0x4(%ebp),%ebx
   107e3:	c9                   	leave  
   107e4:	c3                   	ret    
   107e5:	8d 76 00             	lea    0x0(%esi),%esi
   107e8:	83 ec 0c             	sub    $0xc,%esp
   107eb:	ff b3 fc ff ff ff    	pushl  -0x4(%ebx)
   107f1:	e8 ea 0f 00 00       	call   117e0 <list_empty>
   107f6:	83 c4 10             	add    $0x10,%esp
   107f9:	85 c0                	test   %eax,%eax
   107fb:	8b 5d fc             	mov    -0x4(%ebp),%ebx
   107fe:	0f 94 c0             	sete   %al
   10801:	c9                   	leave  
   10802:	0f b6 c0             	movzbl %al,%eax
   10805:	c3                   	ret    
   10806:	8d 76 00             	lea    0x0(%esi),%esi
   10809:	8d bc 27 00 00 00 00 	lea    0x0(%edi,%eiz,1),%edi

00010810 <sched_next_rr>:
   10810:	55                   	push   %ebp
   10811:	89 e5                	mov    %esp,%ebp
   10813:	56                   	push   %esi
   10814:	53                   	push   %ebx
   10815:	e8 22 18 00 00       	call   1203c <__x86.get_pc_thunk.bx>
   1081a:	81 c3 36 28 00 00    	add    $0x2836,%ebx
   10820:	83 ec 0c             	sub    $0xc,%esp
   10823:	c7 c0 74 30 01 00    	mov    $0x13074,%eax
   10829:	8b 30                	mov    (%eax),%esi
   1082b:	56                   	push   %esi
   1082c:	81 e6 00 f0 ff ff    	and    $0xfffff000,%esi
   10832:	e8 69 0f 00 00       	call   117a0 <list_del>
   10837:	8b 56 14             	mov    0x14(%esi),%edx
   1083a:	c7 c0 7c 30 01 00    	mov    $0x1307c,%eax
   10840:	89 10                	mov    %edx,(%eax)
   10842:	89 34 24             	mov    %esi,(%esp)
   10845:	e8 a6 0f 00 00       	call   117f0 <task_switch>
   1084a:	83 c4 10             	add    $0x10,%esp
   1084d:	8d 65 f8             	lea    -0x8(%ebp),%esp
   10850:	5b                   	pop    %ebx
   10851:	5e                   	pop    %esi
   10852:	5d                   	pop    %ebp
   10853:	c3                   	ret    
   10854:	8d b6 00 00 00 00    	lea    0x0(%esi),%esi
   1085a:	8d bf 00 00 00 00    	lea    0x0(%edi),%edi

00010860 <schedule>:
   10860:	55                   	push   %ebp
   10861:	89 e5                	mov    %esp,%ebp
   10863:	57                   	push   %edi
   10864:	56                   	push   %esi
   10865:	53                   	push   %ebx
   10866:	e8 d1 17 00 00       	call   1203c <__x86.get_pc_thunk.bx>
   1086b:	81 c3 e5 27 00 00    	add    $0x27e5,%ebx
   10871:	83 ec 0c             	sub    $0xc,%esp
   10874:	c7 c2 7c 30 01 00    	mov    $0x1307c,%edx
   1087a:	8b 02                	mov    (%edx),%eax
   1087c:	85 c0                	test   %eax,%eax
   1087e:	75 20                	jne    108a0 <schedule+0x40>
   10880:	c7 c6 80 30 01 00    	mov    $0x13080,%esi
   10886:	83 ec 0c             	sub    $0xc,%esp
   10889:	56                   	push   %esi
   1088a:	e8 51 0f 00 00       	call   117e0 <list_empty>
   1088f:	83 c4 10             	add    $0x10,%esp
   10892:	85 c0                	test   %eax,%eax
   10894:	74 22                	je     108b8 <schedule+0x58>
   10896:	8d 65 f4             	lea    -0xc(%ebp),%esp
   10899:	5b                   	pop    %ebx
   1089a:	5e                   	pop    %esi
   1089b:	5f                   	pop    %edi
   1089c:	5d                   	pop    %ebp
   1089d:	c3                   	ret    
   1089e:	66 90                	xchg   %ax,%ax
   108a0:	83 e8 01             	sub    $0x1,%eax
   108a3:	85 c0                	test   %eax,%eax
   108a5:	89 02                	mov    %eax,(%edx)
   108a7:	74 d7                	je     10880 <schedule+0x20>
   108a9:	8d 65 f4             	lea    -0xc(%ebp),%esp
   108ac:	5b                   	pop    %ebx
   108ad:	5e                   	pop    %esi
   108ae:	5f                   	pop    %edi
   108af:	5d                   	pop    %ebp
   108b0:	c3                   	ret    
   108b1:	8d b4 26 00 00 00 00 	lea    0x0(%esi,%eiz,1),%esi
   108b8:	89 e0                	mov    %esp,%eax
   108ba:	c7 c2 70 30 01 00    	mov    $0x13070,%edx
   108c0:	25 00 f0 ff ff       	and    $0xfffff000,%eax
   108c5:	39 02                	cmp    %eax,(%edx)
   108c7:	74 20                	je     108e9 <schedule+0x89>
   108c9:	89 e7                	mov    %esp,%edi
   108cb:	81 e7 00 f0 ff ff    	and    $0xfffff000,%edi
   108d1:	83 ec 0c             	sub    $0xc,%esp
   108d4:	83 c7 08             	add    $0x8,%edi
   108d7:	57                   	push   %edi
   108d8:	e8 c3 0e 00 00       	call   117a0 <list_del>
   108dd:	58                   	pop    %eax
   108de:	5a                   	pop    %edx
   108df:	56                   	push   %esi
   108e0:	57                   	push   %edi
   108e1:	e8 9a 0e 00 00       	call   11780 <list_add_tail>
   108e6:	83 c4 10             	add    $0x10,%esp
   108e9:	8d 65 f4             	lea    -0xc(%ebp),%esp
   108ec:	5b                   	pop    %ebx
   108ed:	5e                   	pop    %esi
   108ee:	5f                   	pop    %edi
   108ef:	5d                   	pop    %ebp
   108f0:	e9 1b ff ff ff       	jmp    10810 <sched_next_rr>
   108f5:	8d 74 26 00          	lea    0x0(%esi,%eiz,1),%esi
   108f9:	8d bc 27 00 00 00 00 	lea    0x0(%edi,%eiz,1),%edi

00010900 <get_quantum>:
   10900:	55                   	push   %ebp
   10901:	89 e5                	mov    %esp,%ebp
   10903:	8b 45 08             	mov    0x8(%ebp),%eax
   10906:	5d                   	pop    %ebp
   10907:	8b 40 14             	mov    0x14(%eax),%eax
   1090a:	c3                   	ret    
   1090b:	90                   	nop
   1090c:	8d 74 26 00          	lea    0x0(%esi,%eiz,1),%esi

00010910 <set_quantum>:
   10910:	55                   	push   %ebp
   10911:	89 e5                	mov    %esp,%ebp
   10913:	8b 45 08             	mov    0x8(%ebp),%eax
   10916:	8b 55 0c             	mov    0xc(%ebp),%edx
   10919:	89 50 14             	mov    %edx,0x14(%eax)
   1091c:	5d                   	pop    %ebp
   1091d:	c3                   	ret    
   1091e:	66 90                	xchg   %ax,%ax

00010920 <ret_from_fork>:
   10920:	55                   	push   %ebp
   10921:	31 c0                	xor    %eax,%eax
   10923:	89 e5                	mov    %esp,%ebp
   10925:	5d                   	pop    %ebp
   10926:	c3                   	ret    
   10927:	89 f6                	mov    %esi,%esi
   10929:	8d bc 27 00 00 00 00 	lea    0x0(%edi,%eiz,1),%edi

00010930 <check_fd>:
   10930:	55                   	push   %ebp
   10931:	89 e5                	mov    %esp,%ebp
   10933:	83 7d 08 01          	cmpl   $0x1,0x8(%ebp)
   10937:	75 17                	jne    10950 <check_fd+0x20>
   10939:	83 7d 0c 01          	cmpl   $0x1,0xc(%ebp)
   1093d:	b8 f3 ff ff ff       	mov    $0xfffffff3,%eax
   10942:	ba 00 00 00 00       	mov    $0x0,%edx
   10947:	5d                   	pop    %ebp
   10948:	0f 44 c2             	cmove  %edx,%eax
   1094b:	c3                   	ret    
   1094c:	8d 74 26 00          	lea    0x0(%esi,%eiz,1),%esi
   10950:	b8 f7 ff ff ff       	mov    $0xfffffff7,%eax
   10955:	5d                   	pop    %ebp
   10956:	c3                   	ret    
   10957:	89 f6                	mov    %esi,%esi
   10959:	8d bc 27 00 00 00 00 	lea    0x0(%edi,%eiz,1),%edi

00010960 <sys_ni_syscall>:
   10960:	55                   	push   %ebp
   10961:	b8 da ff ff ff       	mov    $0xffffffda,%eax
   10966:	89 e5                	mov    %esp,%ebp
   10968:	5d                   	pop    %ebp
   10969:	c3                   	ret    
   1096a:	8d b6 00 00 00 00    	lea    0x0(%esi),%esi

00010970 <sys_getpid>:
   10970:	55                   	push   %ebp
   10971:	89 e5                	mov    %esp,%ebp
   10973:	53                   	push   %ebx
   10974:	e8 c3 16 00 00       	call   1203c <__x86.get_pc_thunk.bx>
   10979:	81 c3 d7 26 00 00    	add    $0x26d7,%ebx
   1097f:	83 ec 04             	sub    $0x4,%esp
   10982:	e8 69 fd ff ff       	call   106f0 <current>
   10987:	8b 00                	mov    (%eax),%eax
   10989:	83 c4 04             	add    $0x4,%esp
   1098c:	5b                   	pop    %ebx
   1098d:	5d                   	pop    %ebp
   1098e:	c3                   	ret    
   1098f:	90                   	nop

00010990 <sys_fork>:
   10990:	55                   	push   %ebp
   10991:	89 e5                	mov    %esp,%ebp
   10993:	57                   	push   %edi
   10994:	56                   	push   %esi
   10995:	53                   	push   %ebx
   10996:	e8 a1 16 00 00       	call   1203c <__x86.get_pc_thunk.bx>
   1099b:	81 c3 b5 26 00 00    	add    $0x26b5,%ebx
   109a1:	81 ec 48 10 00 00    	sub    $0x1048,%esp
   109a7:	c7 c6 74 30 01 00    	mov    $0x13074,%esi
   109ad:	56                   	push   %esi
   109ae:	e8 2d 0e 00 00       	call   117e0 <list_empty>
   109b3:	83 c4 10             	add    $0x10,%esp
   109b6:	85 c0                	test   %eax,%eax
   109b8:	0f 85 f4 03 00 00    	jne    10db2 <sys_fork+0x422>
   109be:	8b 3e                	mov    (%esi),%edi
   109c0:	8b 07                	mov    (%edi),%eax
   109c2:	89 bd c8 ef ff ff    	mov    %edi,-0x1038(%ebp)
   109c8:	89 85 c0 ef ff ff    	mov    %eax,-0x1040(%ebp)
   109ce:	8b 47 04             	mov    0x4(%edi),%eax
   109d1:	89 85 bc ef ff ff    	mov    %eax,-0x1044(%ebp)
   109d7:	e8 14 fd ff ff       	call   106f0 <current>
   109dc:	83 ec 0c             	sub    $0xc,%esp
   109df:	50                   	push   %eax
   109e0:	e8 2b fb ff ff       	call   10510 <get_DIR>
   109e5:	89 04 24             	mov    %eax,(%esp)
   109e8:	e8 a3 06 00 00       	call   11090 <set_cr3>
   109ed:	89 3c 24             	mov    %edi,(%esp)
   109f0:	e8 0b fb ff ff       	call   10500 <list_head_to_task_struct>
   109f5:	89 c6                	mov    %eax,%esi
   109f7:	89 85 c4 ef ff ff    	mov    %eax,-0x103c(%ebp)
   109fd:	e8 ee fc ff ff       	call   106f0 <current>
   10a02:	83 c4 0c             	add    $0xc,%esp
   10a05:	68 00 10 00 00       	push   $0x1000
   10a0a:	56                   	push   %esi
   10a0b:	50                   	push   %eax
   10a0c:	e8 df 0a 00 00       	call   114f0 <copy_data>
   10a11:	89 34 24             	mov    %esi,(%esp)
   10a14:	e8 27 fb ff ff       	call   10540 <allocate_DIR>
   10a19:	e8 d2 fc ff ff       	call   106f0 <current>
   10a1e:	89 04 24             	mov    %eax,(%esp)
   10a21:	e8 fa fa ff ff       	call   10520 <get_PT>
   10a26:	89 34 24             	mov    %esi,(%esp)
   10a29:	89 c7                	mov    %eax,%edi
   10a2b:	89 85 d0 ef ff ff    	mov    %eax,-0x1030(%ebp)
   10a31:	e8 ea fa ff ff       	call   10520 <get_PT>
   10a36:	89 85 dc ef ff ff    	mov    %eax,-0x1024(%ebp)
   10a3c:	8d 85 e8 ef ff ff    	lea    -0x1018(%ebp),%eax
   10a42:	83 c4 10             	add    $0x10,%esp
   10a45:	31 f6                	xor    %esi,%esi
   10a47:	ba ff ff ff ff       	mov    $0xffffffff,%edx
   10a4c:	c7 85 e0 ef ff ff ff 	movl   $0xffffffff,-0x1020(%ebp)
   10a53:	ff ff ff 
   10a56:	c7 85 d4 ef ff ff ff 	movl   $0xffffffff,-0x102c(%ebp)
   10a5d:	ff ff ff 
   10a60:	89 85 e4 ef ff ff    	mov    %eax,-0x101c(%ebp)
   10a66:	eb 71                	jmp    10ad9 <sys_fork+0x149>
   10a68:	90                   	nop
   10a69:	8d b4 26 00 00 00 00 	lea    0x0(%esi,%eiz,1),%esi
   10a70:	83 e0 06             	and    $0x6,%eax
   10a73:	3c 06                	cmp    $0x6,%al
   10a75:	0f 84 c5 01 00 00    	je     10c40 <sys_fork+0x2b0>
   10a7b:	8b 85 e4 ef ff ff    	mov    -0x101c(%ebp),%eax
   10a81:	c7 04 b0 ff ff ff ff 	movl   $0xffffffff,(%eax,%esi,4)
   10a88:	8b 85 dc ef ff ff    	mov    -0x1024(%ebp),%eax
   10a8e:	8d 14 b0             	lea    (%eax,%esi,4),%edx
   10a91:	0f b6 02             	movzbl (%edx),%eax
   10a94:	83 c8 01             	or     $0x1,%eax
   10a97:	88 02                	mov    %al,(%edx)
   10a99:	0f b6 0f             	movzbl (%edi),%ecx
   10a9c:	83 e0 fd             	and    $0xfffffffd,%eax
   10a9f:	83 e1 02             	and    $0x2,%ecx
   10aa2:	09 c8                	or     %ecx,%eax
   10aa4:	88 02                	mov    %al,(%edx)
   10aa6:	0f b6 0f             	movzbl (%edi),%ecx
   10aa9:	83 e0 fb             	and    $0xfffffffb,%eax
   10aac:	83 e1 04             	and    $0x4,%ecx
   10aaf:	09 c8                	or     %ecx,%eax
   10ab1:	88 02                	mov    %al,(%edx)
   10ab3:	8b 02                	mov    (%edx),%eax
   10ab5:	8b 0f                	mov    (%edi),%ecx
   10ab7:	25 ff 0f 00 00       	and    $0xfff,%eax
   10abc:	81 e1 00 f0 ff ff    	and    $0xfffff000,%ecx
   10ac2:	09 c8                	or     %ecx,%eax
   10ac4:	89 02                	mov    %eax,(%edx)
   10ac6:	ba ff ff ff ff       	mov    $0xffffffff,%edx
   10acb:	83 c6 01             	add    $0x1,%esi
   10ace:	83 c7 04             	add    $0x4,%edi
   10ad1:	81 fe 00 04 00 00    	cmp    $0x400,%esi
   10ad7:	74 43                	je     10b1c <sys_fork+0x18c>
   10ad9:	0f b6 07             	movzbl (%edi),%eax
   10adc:	a8 01                	test   $0x1,%al
   10ade:	75 90                	jne    10a70 <sys_fork+0xe0>
   10ae0:	8b 85 e4 ef ff ff    	mov    -0x101c(%ebp),%eax
   10ae6:	83 fa ff             	cmp    $0xffffffff,%edx
   10ae9:	c7 04 b0 ff ff ff ff 	movl   $0xffffffff,(%eax,%esi,4)
   10af0:	0f 84 3a 01 00 00    	je     10c30 <sys_fork+0x2a0>
   10af6:	89 f0                	mov    %esi,%eax
   10af8:	29 d0                	sub    %edx,%eax
   10afa:	3b 85 e0 ef ff ff    	cmp    -0x1020(%ebp),%eax
   10b00:	7e c9                	jle    10acb <sys_fork+0x13b>
   10b02:	83 c6 01             	add    $0x1,%esi
   10b05:	83 c7 04             	add    $0x4,%edi
   10b08:	89 85 e0 ef ff ff    	mov    %eax,-0x1020(%ebp)
   10b0e:	81 fe 00 04 00 00    	cmp    $0x400,%esi
   10b14:	89 95 d4 ef ff ff    	mov    %edx,-0x102c(%ebp)
   10b1a:	75 bd                	jne    10ad9 <sys_fork+0x149>
   10b1c:	8b bd d4 ef ff ff    	mov    -0x102c(%ebp),%edi
   10b22:	8b 8d e0 ef ff ff    	mov    -0x1020(%ebp),%ecx
   10b28:	31 c0                	xor    %eax,%eax
   10b2a:	31 f6                	xor    %esi,%esi
   10b2c:	8d 7c 0f 01          	lea    0x1(%edi,%ecx,1),%edi
   10b30:	89 bd cc ef ff ff    	mov    %edi,-0x1034(%ebp)
   10b36:	eb 65                	jmp    10b9d <sys_fork+0x20d>
   10b38:	90                   	nop
   10b39:	8d b4 26 00 00 00 00 	lea    0x0(%esi,%eiz,1),%esi
   10b40:	8b 8d d4 ef ff ff    	mov    -0x102c(%ebp),%ecx
   10b46:	8d 14 01             	lea    (%ecx,%eax,1),%edx
   10b49:	83 c0 01             	add    $0x1,%eax
   10b4c:	83 ec 04             	sub    $0x4,%esp
   10b4f:	89 85 d8 ef ff ff    	mov    %eax,-0x1028(%ebp)
   10b55:	89 95 dc ef ff ff    	mov    %edx,-0x1024(%ebp)
   10b5b:	57                   	push   %edi
   10b5c:	52                   	push   %edx
   10b5d:	ff b5 d0 ef ff ff    	pushl  -0x1030(%ebp)
   10b63:	e8 d8 08 00 00       	call   11440 <set_ss_pag>
   10b68:	8b 95 dc ef ff ff    	mov    -0x1024(%ebp),%edx
   10b6e:	83 c4 0c             	add    $0xc,%esp
   10b71:	68 00 10 00 00       	push   $0x1000
   10b76:	c1 e2 0c             	shl    $0xc,%edx
   10b79:	52                   	push   %edx
   10b7a:	89 f2                	mov    %esi,%edx
   10b7c:	c1 e2 0c             	shl    $0xc,%edx
   10b7f:	52                   	push   %edx
   10b80:	e8 6b 09 00 00       	call   114f0 <copy_data>
   10b85:	8b 85 d8 ef ff ff    	mov    -0x1028(%ebp),%eax
   10b8b:	83 c4 10             	add    $0x10,%esp
   10b8e:	83 c6 01             	add    $0x1,%esi
   10b91:	81 fe 00 04 00 00    	cmp    $0x400,%esi
   10b97:	0f 84 e3 00 00 00    	je     10c80 <sys_fork+0x2f0>
   10b9d:	8b 8d e4 ef ff ff    	mov    -0x101c(%ebp),%ecx
   10ba3:	8b 3c b1             	mov    (%ecx,%esi,4),%edi
   10ba6:	83 ff ff             	cmp    $0xffffffff,%edi
   10ba9:	74 e3                	je     10b8e <sys_fork+0x1fe>
   10bab:	8b 8d e0 ef ff ff    	mov    -0x1020(%ebp),%ecx
   10bb1:	8d 51 01             	lea    0x1(%ecx),%edx
   10bb4:	39 c2                	cmp    %eax,%edx
   10bb6:	75 88                	jne    10b40 <sys_fork+0x1b0>
   10bb8:	83 bd e0 ef ff ff ff 	cmpl   $0xffffffff,-0x1020(%ebp)
   10bbf:	74 43                	je     10c04 <sys_fork+0x274>
   10bc1:	8b 85 d4 ef ff ff    	mov    -0x102c(%ebp),%eax
   10bc7:	89 bd dc ef ff ff    	mov    %edi,-0x1024(%ebp)
   10bcd:	8b bd d0 ef ff ff    	mov    -0x1030(%ebp),%edi
   10bd3:	89 b5 d8 ef ff ff    	mov    %esi,-0x1028(%ebp)
   10bd9:	89 c6                	mov    %eax,%esi
   10bdb:	90                   	nop
   10bdc:	8d 74 26 00          	lea    0x0(%esi,%eiz,1),%esi
   10be0:	83 ec 08             	sub    $0x8,%esp
   10be3:	56                   	push   %esi
   10be4:	57                   	push   %edi
   10be5:	83 c6 01             	add    $0x1,%esi
   10be8:	e8 73 08 00 00       	call   11460 <del_ss_pag>
   10bed:	83 c4 10             	add    $0x10,%esp
   10bf0:	39 b5 cc ef ff ff    	cmp    %esi,-0x1034(%ebp)
   10bf6:	75 e8                	jne    10be0 <sys_fork+0x250>
   10bf8:	8b bd dc ef ff ff    	mov    -0x1024(%ebp),%edi
   10bfe:	8b b5 d8 ef ff ff    	mov    -0x1028(%ebp),%esi
   10c04:	e8 e7 fa ff ff       	call   106f0 <current>
   10c09:	83 ec 0c             	sub    $0xc,%esp
   10c0c:	50                   	push   %eax
   10c0d:	e8 fe f8 ff ff       	call   10510 <get_DIR>
   10c12:	89 04 24             	mov    %eax,(%esp)
   10c15:	e8 76 04 00 00       	call   11090 <set_cr3>
   10c1a:	83 c4 10             	add    $0x10,%esp
   10c1d:	8b 95 d4 ef ff ff    	mov    -0x102c(%ebp),%edx
   10c23:	b8 01 00 00 00       	mov    $0x1,%eax
   10c28:	e9 1f ff ff ff       	jmp    10b4c <sys_fork+0x1bc>
   10c2d:	8d 76 00             	lea    0x0(%esi),%esi
   10c30:	31 c0                	xor    %eax,%eax
   10c32:	89 f2                	mov    %esi,%edx
   10c34:	e9 c1 fe ff ff       	jmp    10afa <sys_fork+0x16a>
   10c39:	8d b4 26 00 00 00 00 	lea    0x0(%esi,%eiz,1),%esi
   10c40:	e8 1b 07 00 00       	call   11360 <alloc_frame>
   10c45:	8b 8d e4 ef ff ff    	mov    -0x101c(%ebp),%ecx
   10c4b:	83 f8 ff             	cmp    $0xffffffff,%eax
   10c4e:	89 04 b1             	mov    %eax,(%ecx,%esi,4)
   10c51:	0f 84 27 01 00 00    	je     10d7e <sys_fork+0x3ee>
   10c57:	8b 8d dc ef ff ff    	mov    -0x1024(%ebp),%ecx
   10c5d:	c1 e0 0c             	shl    $0xc,%eax
   10c60:	8d 0c b1             	lea    (%ecx,%esi,4),%ecx
   10c63:	80 09 07             	orb    $0x7,(%ecx)
   10c66:	8b 11                	mov    (%ecx),%edx
   10c68:	81 e2 ff 0f 00 00    	and    $0xfff,%edx
   10c6e:	09 d0                	or     %edx,%eax
   10c70:	ba ff ff ff ff       	mov    $0xffffffff,%edx
   10c75:	89 01                	mov    %eax,(%ecx)
   10c77:	e9 4f fe ff ff       	jmp    10acb <sys_fork+0x13b>
   10c7c:	8d 74 26 00          	lea    0x0(%esi,%eiz,1),%esi
   10c80:	83 e8 01             	sub    $0x1,%eax
   10c83:	78 34                	js     10cb9 <sys_fork+0x329>
   10c85:	8b b5 d4 ef ff ff    	mov    -0x102c(%ebp),%esi
   10c8b:	8d 3c 06             	lea    (%esi,%eax,1),%edi
   10c8e:	83 ee 01             	sub    $0x1,%esi
   10c91:	89 f0                	mov    %esi,%eax
   10c93:	89 fe                	mov    %edi,%esi
   10c95:	89 c7                	mov    %eax,%edi
   10c97:	89 f6                	mov    %esi,%esi
   10c99:	8d bc 27 00 00 00 00 	lea    0x0(%edi,%eiz,1),%edi
   10ca0:	83 ec 08             	sub    $0x8,%esp
   10ca3:	56                   	push   %esi
   10ca4:	ff b5 d0 ef ff ff    	pushl  -0x1030(%ebp)
   10caa:	83 ee 01             	sub    $0x1,%esi
   10cad:	e8 ae 07 00 00       	call   11460 <del_ss_pag>
   10cb2:	83 c4 10             	add    $0x10,%esp
   10cb5:	39 fe                	cmp    %edi,%esi
   10cb7:	75 e7                	jne    10ca0 <sys_fork+0x310>
   10cb9:	e8 32 fa ff ff       	call   106f0 <current>
   10cbe:	83 ec 0c             	sub    $0xc,%esp
   10cc1:	50                   	push   %eax
   10cc2:	e8 49 f8 ff ff       	call   10510 <get_DIR>
   10cc7:	89 04 24             	mov    %eax,(%esp)
   10cca:	e8 c1 03 00 00       	call   11090 <set_cr3>
   10ccf:	8b 85 c8 ef ff ff    	mov    -0x1038(%ebp),%eax
   10cd5:	8b bd c0 ef ff ff    	mov    -0x1040(%ebp),%edi
   10cdb:	89 38                	mov    %edi,(%eax)
   10cdd:	8b bd bc ef ff ff    	mov    -0x1044(%ebp),%edi
   10ce3:	89 78 04             	mov    %edi,0x4(%eax)
   10ce6:	89 04 24             	mov    %eax,(%esp)
   10ce9:	e8 b2 0a 00 00       	call   117a0 <list_del>
   10cee:	e8 fd f9 ff ff       	call   106f0 <current>
   10cf3:	8b 30                	mov    (%eax),%esi
   10cf5:	c7 c0 00 40 01 00    	mov    $0x14000,%eax
   10cfb:	83 c4 10             	add    $0x10,%esp
   10cfe:	89 85 e4 ef ff ff    	mov    %eax,-0x101c(%ebp)
   10d04:	8d b8 00 a0 00 00    	lea    0xa000(%eax),%edi
   10d0a:	81 c6 8e 00 00 00    	add    $0x8e,%esi
   10d10:	31 c0                	xor    %eax,%eax
   10d12:	8d b6 00 00 00 00    	lea    0x0(%esi),%esi
   10d18:	8b 95 e4 ef ff ff    	mov    -0x101c(%ebp),%edx
   10d1e:	83 c6 01             	add    $0x1,%esi
   10d21:	b9 01 00 00 00       	mov    $0x1,%ecx
   10d26:	8d 76 00             	lea    0x0(%esi),%esi
   10d29:	8d bc 27 00 00 00 00 	lea    0x0(%edi,%eiz,1),%edi
   10d30:	39 32                	cmp    %esi,(%edx)
   10d32:	0f 44 c8             	cmove  %eax,%ecx
   10d35:	81 c2 00 10 00 00    	add    $0x1000,%edx
   10d3b:	39 fa                	cmp    %edi,%edx
   10d3d:	75 f1                	jne    10d30 <sys_fork+0x3a0>
   10d3f:	85 c9                	test   %ecx,%ecx
   10d41:	74 d5                	je     10d18 <sys_fork+0x388>
   10d43:	8b bd c4 ef ff ff    	mov    -0x103c(%ebp),%edi
   10d49:	8d 93 d0 d8 ff ff    	lea    -0x2730(%ebx),%edx
   10d4f:	83 ec 08             	sub    $0x8,%esp
   10d52:	8b 47 10             	mov    0x10(%edi),%eax
   10d55:	89 37                	mov    %esi,(%edi)
   10d57:	83 e8 04             	sub    $0x4,%eax
   10d5a:	89 50 04             	mov    %edx,0x4(%eax)
   10d5d:	89 47 10             	mov    %eax,0x10(%edi)
   10d60:	ff b3 fc ff ff ff    	pushl  -0x4(%ebx)
   10d66:	ff b5 c8 ef ff ff    	pushl  -0x1038(%ebp)
   10d6c:	e8 0f 0a 00 00       	call   11780 <list_add_tail>
   10d71:	83 c4 10             	add    $0x10,%esp
   10d74:	8d 65 f4             	lea    -0xc(%ebp),%esp
   10d77:	89 f0                	mov    %esi,%eax
   10d79:	5b                   	pop    %ebx
   10d7a:	5e                   	pop    %esi
   10d7b:	5f                   	pop    %edi
   10d7c:	5d                   	pop    %ebp
   10d7d:	c3                   	ret    
   10d7e:	89 cf                	mov    %ecx,%edi
   10d80:	8d 34 b1             	lea    (%ecx,%esi,4),%esi
   10d83:	eb 1a                	jmp    10d9f <sys_fork+0x40f>
   10d85:	8d 76 00             	lea    0x0(%esi),%esi
   10d88:	8b 46 fc             	mov    -0x4(%esi),%eax
   10d8b:	83 f8 ff             	cmp    $0xffffffff,%eax
   10d8e:	74 0c                	je     10d9c <sys_fork+0x40c>
   10d90:	83 ec 0c             	sub    $0xc,%esp
   10d93:	50                   	push   %eax
   10d94:	e8 77 06 00 00       	call   11410 <free_frame>
   10d99:	83 c4 10             	add    $0x10,%esp
   10d9c:	83 ee 04             	sub    $0x4,%esi
   10d9f:	39 f7                	cmp    %esi,%edi
   10da1:	75 e5                	jne    10d88 <sys_fork+0x3f8>
   10da3:	8d 65 f4             	lea    -0xc(%ebp),%esp
   10da6:	be f4 ff ff ff       	mov    $0xfffffff4,%esi
   10dab:	89 f0                	mov    %esi,%eax
   10dad:	5b                   	pop    %ebx
   10dae:	5e                   	pop    %esi
   10daf:	5f                   	pop    %edi
   10db0:	5d                   	pop    %ebp
   10db1:	c3                   	ret    
   10db2:	be f5 ff ff ff       	mov    $0xfffffff5,%esi
   10db7:	eb bb                	jmp    10d74 <sys_fork+0x3e4>
   10db9:	8d b4 26 00 00 00 00 	lea    0x0(%esi,%eiz,1),%esi

00010dc0 <sys_exit>:
   10dc0:	55                   	push   %ebp
   10dc1:	89 e5                	mov    %esp,%ebp
   10dc3:	5d                   	pop    %ebp
   10dc4:	c3                   	ret    
   10dc5:	8d 74 26 00          	lea    0x0(%esi,%eiz,1),%esi
   10dc9:	8d bc 27 00 00 00 00 	lea    0x0(%edi,%eiz,1),%edi

00010dd0 <sys_write>:
   10dd0:	55                   	push   %ebp
   10dd1:	89 e5                	mov    %esp,%ebp
   10dd3:	57                   	push   %edi
   10dd4:	56                   	push   %esi
   10dd5:	53                   	push   %ebx
   10dd6:	e8 61 12 00 00       	call   1203c <__x86.get_pc_thunk.bx>
   10ddb:	81 c3 75 22 00 00    	add    $0x2275,%ebx
   10de1:	81 ec 1c 10 00 00    	sub    $0x101c,%esp
   10de7:	83 7d 08 01          	cmpl   $0x1,0x8(%ebp)
   10deb:	8b 4d 0c             	mov    0xc(%ebp),%ecx
   10dee:	8b 55 10             	mov    0x10(%ebp),%edx
   10df1:	0f 85 91 00 00 00    	jne    10e88 <sys_write+0xb8>
   10df7:	85 c9                	test   %ecx,%ecx
   10df9:	0f 84 a1 00 00 00    	je     10ea0 <sys_write+0xd0>
   10dff:	85 d2                	test   %edx,%edx
   10e01:	0f 88 8d 00 00 00    	js     10e94 <sys_write+0xc4>
   10e07:	74 67                	je     10e70 <sys_write+0xa0>
   10e09:	8d bd e8 ef ff ff    	lea    -0x1018(%ebp),%edi
   10e0f:	be 00 10 00 00       	mov    $0x1000,%esi
   10e14:	c7 85 dc ef ff ff 00 	movl   $0x0,-0x1024(%ebp)
   10e1b:	00 00 00 
   10e1e:	66 90                	xchg   %ax,%ax
   10e20:	39 d6                	cmp    %edx,%esi
   10e22:	89 8d e4 ef ff ff    	mov    %ecx,-0x101c(%ebp)
   10e28:	89 95 e0 ef ff ff    	mov    %edx,-0x1020(%ebp)
   10e2e:	0f 4f f2             	cmovg  %edx,%esi
   10e31:	83 ec 04             	sub    $0x4,%esp
   10e34:	56                   	push   %esi
   10e35:	57                   	push   %edi
   10e36:	51                   	push   %ecx
   10e37:	e8 24 07 00 00       	call   11560 <copy_from_user>
   10e3c:	58                   	pop    %eax
   10e3d:	5a                   	pop    %edx
   10e3e:	56                   	push   %esi
   10e3f:	57                   	push   %edi
   10e40:	e8 5b 06 00 00       	call   114a0 <sys_write_console>
   10e45:	8b 95 e0 ef ff ff    	mov    -0x1020(%ebp),%edx
   10e4b:	8b 8d e4 ef ff ff    	mov    -0x101c(%ebp),%ecx
   10e51:	83 c4 10             	add    $0x10,%esp
   10e54:	01 b5 dc ef ff ff    	add    %esi,-0x1024(%ebp)
   10e5a:	29 f2                	sub    %esi,%edx
   10e5c:	01 f1                	add    %esi,%ecx
   10e5e:	85 d2                	test   %edx,%edx
   10e60:	7f be                	jg     10e20 <sys_write+0x50>
   10e62:	8b 85 dc ef ff ff    	mov    -0x1024(%ebp),%eax
   10e68:	8d 65 f4             	lea    -0xc(%ebp),%esp
   10e6b:	5b                   	pop    %ebx
   10e6c:	5e                   	pop    %esi
   10e6d:	5f                   	pop    %edi
   10e6e:	5d                   	pop    %ebp
   10e6f:	c3                   	ret    
   10e70:	c7 85 dc ef ff ff 00 	movl   $0x0,-0x1024(%ebp)
   10e77:	00 00 00 
   10e7a:	8b 85 dc ef ff ff    	mov    -0x1024(%ebp),%eax
   10e80:	8d 65 f4             	lea    -0xc(%ebp),%esp
   10e83:	5b                   	pop    %ebx
   10e84:	5e                   	pop    %esi
   10e85:	5f                   	pop    %edi
   10e86:	5d                   	pop    %ebp
   10e87:	c3                   	ret    
   10e88:	c7 85 dc ef ff ff f7 	movl   $0xfffffff7,-0x1024(%ebp)
   10e8f:	ff ff ff 
   10e92:	eb ce                	jmp    10e62 <sys_write+0x92>
   10e94:	c7 85 dc ef ff ff ea 	movl   $0xffffffea,-0x1024(%ebp)
   10e9b:	ff ff ff 
   10e9e:	eb c2                	jmp    10e62 <sys_write+0x92>
   10ea0:	c7 85 dc ef ff ff f2 	movl   $0xfffffff2,-0x1024(%ebp)
   10ea7:	ff ff ff 
   10eaa:	eb b6                	jmp    10e62 <sys_write+0x92>
   10eac:	8d 74 26 00          	lea    0x0(%esi,%eiz,1),%esi

00010eb0 <sys_gettime>:
   10eb0:	e8 8f 11 00 00       	call   12044 <__x86.get_pc_thunk.ax>
   10eb5:	05 9b 21 00 00       	add    $0x219b,%eax
   10eba:	55                   	push   %ebp
   10ebb:	c7 c0 6c 30 01 00    	mov    $0x1306c,%eax
   10ec1:	89 e5                	mov    %esp,%ebp
   10ec3:	5d                   	pop    %ebp
   10ec4:	8b 00                	mov    (%eax),%eax
   10ec6:	c3                   	ret    
   10ec7:	66 90                	xchg   %ax,%ax
   10ec9:	66 90                	xchg   %ax,%ax
   10ecb:	66 90                	xchg   %ax,%ax
   10ecd:	66 90                	xchg   %ax,%ax
   10ecf:	90                   	nop

00010ed0 <init_dir_pages>:
   10ed0:	55                   	push   %ebp
   10ed1:	31 d2                	xor    %edx,%edx
   10ed3:	e8 6c 11 00 00       	call   12044 <__x86.get_pc_thunk.ax>
   10ed8:	05 78 21 00 00       	add    $0x2178,%eax
   10edd:	89 e5                	mov    %esp,%ebp
   10edf:	56                   	push   %esi
   10ee0:	53                   	push   %ebx
   10ee1:	8d 88 b0 af 00 00    	lea    0xafb0(%eax),%ecx
   10ee7:	8d b0 b0 4f 01 00    	lea    0x14fb0(%eax),%esi
   10eed:	8d 76 00             	lea    0x0(%esi),%esi
   10ef0:	89 d0                	mov    %edx,%eax
   10ef2:	89 cb                	mov    %ecx,%ebx
   10ef4:	83 c2 01             	add    $0x1,%edx
   10ef7:	c1 e0 0c             	shl    $0xc,%eax
   10efa:	81 e3 00 f0 ff ff    	and    $0xfffff000,%ebx
   10f00:	81 c1 00 10 00 00    	add    $0x1000,%ecx
   10f06:	01 f0                	add    %esi,%eax
   10f08:	83 fa 0a             	cmp    $0xa,%edx
   10f0b:	89 18                	mov    %ebx,(%eax)
   10f0d:	c6 00 07             	movb   $0x7,(%eax)
   10f10:	75 de                	jne    10ef0 <init_dir_pages+0x20>
   10f12:	5b                   	pop    %ebx
   10f13:	5e                   	pop    %esi
   10f14:	5d                   	pop    %ebp
   10f15:	c3                   	ret    
   10f16:	8d 76 00             	lea    0x0(%esi),%esi
   10f19:	8d bc 27 00 00 00 00 	lea    0x0(%edi,%eiz,1),%edi

00010f20 <init_table_pages>:
   10f20:	55                   	push   %ebp
   10f21:	89 e5                	mov    %esp,%ebp
   10f23:	57                   	push   %edi
   10f24:	56                   	push   %esi
   10f25:	e8 22 11 00 00       	call   1204c <__x86.get_pc_thunk.di>
   10f2a:	81 c7 26 21 00 00    	add    $0x2126,%edi
   10f30:	53                   	push   %ebx
   10f31:	8d 9f b0 af 00 00    	lea    0xafb0(%edi),%ebx
   10f37:	83 ec 08             	sub    $0x8,%esp
   10f3a:	c7 45 f0 00 00 00 00 	movl   $0x0,-0x10(%ebp)
   10f41:	8d b4 26 00 00 00 00 	lea    0x0(%esi,%eiz,1),%esi
   10f48:	8d 83 00 10 00 00    	lea    0x1000(%ebx),%eax
   10f4e:	66 90                	xchg   %ax,%ax
   10f50:	c7 03 00 00 00 00    	movl   $0x0,(%ebx)
   10f56:	83 c3 04             	add    $0x4,%ebx
   10f59:	39 c3                	cmp    %eax,%ebx
   10f5b:	75 f3                	jne    10f50 <init_table_pages+0x30>
   10f5d:	8b 75 f0             	mov    -0x10(%ebp),%esi
   10f60:	b9 01 00 00 00       	mov    $0x1,%ecx
   10f65:	89 5d ec             	mov    %ebx,-0x14(%ebp)
   10f68:	c1 e6 0a             	shl    $0xa,%esi
   10f6b:	90                   	nop
   10f6c:	8d 74 26 00          	lea    0x0(%esi,%eiz,1),%esi
   10f70:	8d 14 0e             	lea    (%esi,%ecx,1),%edx
   10f73:	89 cb                	mov    %ecx,%ebx
   10f75:	83 c1 01             	add    $0x1,%ecx
   10f78:	c1 e3 0c             	shl    $0xc,%ebx
   10f7b:	8b 84 97 b0 af 00 00 	mov    0xafb0(%edi,%edx,4),%eax
   10f82:	25 ff 0f 00 00       	and    $0xfff,%eax
   10f87:	09 d8                	or     %ebx,%eax
   10f89:	89 84 97 b0 af 00 00 	mov    %eax,0xafb0(%edi,%edx,4)
   10f90:	83 c8 03             	or     $0x3,%eax
   10f93:	81 f9 00 01 00 00    	cmp    $0x100,%ecx
   10f99:	88 84 97 b0 af 00 00 	mov    %al,0xafb0(%edi,%edx,4)
   10fa0:	75 ce                	jne    10f70 <init_table_pages+0x50>
   10fa2:	83 45 f0 01          	addl   $0x1,-0x10(%ebp)
   10fa6:	8b 5d ec             	mov    -0x14(%ebp),%ebx
   10fa9:	8b 45 f0             	mov    -0x10(%ebp),%eax
   10fac:	83 f8 0a             	cmp    $0xa,%eax
   10faf:	75 97                	jne    10f48 <init_table_pages+0x28>
   10fb1:	83 c4 08             	add    $0x8,%esp
   10fb4:	5b                   	pop    %ebx
   10fb5:	5e                   	pop    %esi
   10fb6:	5f                   	pop    %edi
   10fb7:	5d                   	pop    %ebp
   10fb8:	c3                   	ret    
   10fb9:	8d b4 26 00 00 00 00 	lea    0x0(%esi,%eiz,1),%esi

00010fc0 <set_user_pages>:
   10fc0:	55                   	push   %ebp
   10fc1:	89 e5                	mov    %esp,%ebp
   10fc3:	57                   	push   %edi
   10fc4:	56                   	push   %esi
   10fc5:	53                   	push   %ebx
   10fc6:	e8 71 10 00 00       	call   1203c <__x86.get_pc_thunk.bx>
   10fcb:	81 c3 85 20 00 00    	add    $0x2085,%ebx
   10fd1:	83 ec 18             	sub    $0x18,%esp
   10fd4:	ff 75 08             	pushl  0x8(%ebp)
   10fd7:	e8 44 f5 ff ff       	call   10520 <get_PT>
   10fdc:	c7 c1 80 39 01 00    	mov    $0x13980,%ecx
   10fe2:	8d b0 00 04 00 00    	lea    0x400(%eax),%esi
   10fe8:	8d b8 20 04 00 00    	lea    0x420(%eax),%edi
   10fee:	83 c4 10             	add    $0x10,%esp
   10ff1:	8d b4 26 00 00 00 00 	lea    0x0(%esi,%eiz,1),%esi
   10ff8:	ba 00 01 00 00       	mov    $0x100,%edx
   10ffd:	eb 0c                	jmp    1100b <set_user_pages+0x4b>
   10fff:	90                   	nop
   11000:	83 c2 02             	add    $0x2,%edx
   11003:	81 fa 00 04 00 00    	cmp    $0x400,%edx
   11009:	74 74                	je     1107f <set_user_pages+0xbf>
   1100b:	80 3c 0a 00          	cmpb   $0x0,(%edx,%ecx,1)
   1100f:	75 ef                	jne    11000 <set_user_pages+0x40>
   11011:	c6 04 11 01          	movb   $0x1,(%ecx,%edx,1)
   11015:	81 e2 ff ff 0f 00    	and    $0xfffff,%edx
   1101b:	c1 e2 0c             	shl    $0xc,%edx
   1101e:	83 c6 04             	add    $0x4,%esi
   11021:	89 56 fc             	mov    %edx,-0x4(%esi)
   11024:	c6 46 fc 05          	movb   $0x5,-0x4(%esi)
   11028:	39 fe                	cmp    %edi,%esi
   1102a:	75 cc                	jne    10ff8 <set_user_pages+0x38>
   1102c:	8d 90 70 04 00 00    	lea    0x470(%eax),%edx
   11032:	8d b6 00 00 00 00    	lea    0x0(%esi),%esi
   11038:	b8 00 01 00 00       	mov    $0x100,%eax
   1103d:	eb 0b                	jmp    1104a <set_user_pages+0x8a>
   1103f:	90                   	nop
   11040:	83 c0 02             	add    $0x2,%eax
   11043:	3d 00 04 00 00       	cmp    $0x400,%eax
   11048:	74 2e                	je     11078 <set_user_pages+0xb8>
   1104a:	80 3c 08 00          	cmpb   $0x0,(%eax,%ecx,1)
   1104e:	75 f0                	jne    11040 <set_user_pages+0x80>
   11050:	c6 04 01 01          	movb   $0x1,(%ecx,%eax,1)
   11054:	25 ff ff 0f 00       	and    $0xfffff,%eax
   11059:	c1 e0 0c             	shl    $0xc,%eax
   1105c:	83 c6 04             	add    $0x4,%esi
   1105f:	89 46 fc             	mov    %eax,-0x4(%esi)
   11062:	c6 46 fc 07          	movb   $0x7,-0x4(%esi)
   11066:	39 f2                	cmp    %esi,%edx
   11068:	75 ce                	jne    11038 <set_user_pages+0x78>
   1106a:	8d 65 f4             	lea    -0xc(%ebp),%esp
   1106d:	5b                   	pop    %ebx
   1106e:	5e                   	pop    %esi
   1106f:	5f                   	pop    %edi
   11070:	5d                   	pop    %ebp
   11071:	c3                   	ret    
   11072:	8d b6 00 00 00 00    	lea    0x0(%esi),%esi
   11078:	b8 ff ff 0f 00       	mov    $0xfffff,%eax
   1107d:	eb da                	jmp    11059 <set_user_pages+0x99>
   1107f:	ba ff ff 0f 00       	mov    $0xfffff,%edx
   11084:	eb 95                	jmp    1101b <set_user_pages+0x5b>
   11086:	8d 76 00             	lea    0x0(%esi),%esi
   11089:	8d bc 27 00 00 00 00 	lea    0x0(%edi,%eiz,1),%edi

00011090 <set_cr3>:
   11090:	55                   	push   %ebp
   11091:	89 e5                	mov    %esp,%ebp
   11093:	8b 45 08             	mov    0x8(%ebp),%eax
   11096:	0f 22 d8             	mov    %eax,%cr3
   11099:	5d                   	pop    %ebp
   1109a:	c3                   	ret    
   1109b:	90                   	nop
   1109c:	8d 74 26 00          	lea    0x0(%esi,%eiz,1),%esi

000110a0 <set_pe_flag>:
   110a0:	55                   	push   %ebp
   110a1:	0f 20 c0             	mov    %cr0,%eax
   110a4:	89 e5                	mov    %esp,%ebp
   110a6:	0d 00 00 00 80       	or     $0x80000000,%eax
   110ab:	0f 22 c0             	mov    %eax,%cr0
   110ae:	5d                   	pop    %ebp
   110af:	c3                   	ret    

000110b0 <init_mm>:
   110b0:	55                   	push   %ebp
   110b1:	89 e5                	mov    %esp,%ebp
   110b3:	57                   	push   %edi
   110b4:	56                   	push   %esi
   110b5:	e8 92 0f 00 00       	call   1204c <__x86.get_pc_thunk.di>
   110ba:	81 c7 96 1f 00 00    	add    $0x1f96,%edi
   110c0:	53                   	push   %ebx
   110c1:	8d 87 b0 af 00 00    	lea    0xafb0(%edi),%eax
   110c7:	83 ec 1c             	sub    $0x1c,%esp
   110ca:	c7 45 e4 00 00 00 00 	movl   $0x0,-0x1c(%ebp)
   110d1:	89 45 dc             	mov    %eax,-0x24(%ebp)
   110d4:	89 c3                	mov    %eax,%ebx
   110d6:	8d 76 00             	lea    0x0(%esi),%esi
   110d9:	8d bc 27 00 00 00 00 	lea    0x0(%edi,%eiz,1),%edi
   110e0:	8d 83 00 10 00 00    	lea    0x1000(%ebx),%eax
   110e6:	8d 76 00             	lea    0x0(%esi),%esi
   110e9:	8d bc 27 00 00 00 00 	lea    0x0(%edi,%eiz,1),%edi
   110f0:	c7 03 00 00 00 00    	movl   $0x0,(%ebx)
   110f6:	83 c3 04             	add    $0x4,%ebx
   110f9:	39 c3                	cmp    %eax,%ebx
   110fb:	75 f3                	jne    110f0 <init_mm+0x40>
   110fd:	8b 75 e4             	mov    -0x1c(%ebp),%esi
   11100:	b9 01 00 00 00       	mov    $0x1,%ecx
   11105:	89 5d e0             	mov    %ebx,-0x20(%ebp)
   11108:	c1 e6 0a             	shl    $0xa,%esi
   1110b:	90                   	nop
   1110c:	8d 74 26 00          	lea    0x0(%esi,%eiz,1),%esi
   11110:	8d 14 0e             	lea    (%esi,%ecx,1),%edx
   11113:	89 cb                	mov    %ecx,%ebx
   11115:	83 c1 01             	add    $0x1,%ecx
   11118:	c1 e3 0c             	shl    $0xc,%ebx
   1111b:	8b 84 97 b0 af 00 00 	mov    0xafb0(%edi,%edx,4),%eax
   11122:	25 ff 0f 00 00       	and    $0xfff,%eax
   11127:	09 d8                	or     %ebx,%eax
   11129:	89 84 97 b0 af 00 00 	mov    %eax,0xafb0(%edi,%edx,4)
   11130:	83 c8 03             	or     $0x3,%eax
   11133:	81 f9 00 01 00 00    	cmp    $0x100,%ecx
   11139:	88 84 97 b0 af 00 00 	mov    %al,0xafb0(%edi,%edx,4)
   11140:	75 ce                	jne    11110 <init_mm+0x60>
   11142:	83 45 e4 01          	addl   $0x1,-0x1c(%ebp)
   11146:	8b 5d e0             	mov    -0x20(%ebp),%ebx
   11149:	8b 45 e4             	mov    -0x1c(%ebp),%eax
   1114c:	83 f8 0a             	cmp    $0xa,%eax
   1114f:	75 8f                	jne    110e0 <init_mm+0x30>
   11151:	c7 c0 80 39 01 00    	mov    $0x13980,%eax
   11157:	8d 88 00 04 00 00    	lea    0x400(%eax),%ecx
   1115d:	89 c2                	mov    %eax,%edx
   1115f:	90                   	nop
   11160:	c6 02 00             	movb   $0x0,(%edx)
   11163:	83 c2 01             	add    $0x1,%edx
   11166:	39 ca                	cmp    %ecx,%edx
   11168:	75 f6                	jne    11160 <init_mm+0xb0>
   1116a:	8d 90 00 01 00 00    	lea    0x100(%eax),%edx
   11170:	c6 00 01             	movb   $0x1,(%eax)
   11173:	83 c0 01             	add    $0x1,%eax
   11176:	39 d0                	cmp    %edx,%eax
   11178:	75 f6                	jne    11170 <init_mm+0xc0>
   1117a:	8b 5d dc             	mov    -0x24(%ebp),%ebx
   1117d:	8d 8f b0 4f 01 00    	lea    0x14fb0(%edi),%ecx
   11183:	31 d2                	xor    %edx,%edx
   11185:	8d 76 00             	lea    0x0(%esi),%esi
   11188:	89 d0                	mov    %edx,%eax
   1118a:	89 de                	mov    %ebx,%esi
   1118c:	83 c2 01             	add    $0x1,%edx
   1118f:	c1 e0 0c             	shl    $0xc,%eax
   11192:	81 e6 00 f0 ff ff    	and    $0xfffff000,%esi
   11198:	81 c3 00 10 00 00    	add    $0x1000,%ebx
   1119e:	01 c8                	add    %ecx,%eax
   111a0:	83 fa 0a             	cmp    $0xa,%edx
   111a3:	89 30                	mov    %esi,(%eax)
   111a5:	c6 00 07             	movb   $0x7,(%eax)
   111a8:	75 de                	jne    11188 <init_mm+0xd8>
   111aa:	c7 c6 00 40 01 00    	mov    $0x14000,%esi
   111b0:	83 ec 0c             	sub    $0xc,%esp
   111b3:	89 fb                	mov    %edi,%ebx
   111b5:	56                   	push   %esi
   111b6:	e8 85 f3 ff ff       	call   10540 <allocate_DIR>
   111bb:	89 34 24             	mov    %esi,(%esp)
   111be:	e8 4d f3 ff ff       	call   10510 <get_DIR>
   111c3:	0f 22 d8             	mov    %eax,%cr3
   111c6:	0f 20 c0             	mov    %cr0,%eax
   111c9:	0d 00 00 00 80       	or     $0x80000000,%eax
   111ce:	0f 22 c0             	mov    %eax,%cr0
   111d1:	83 c4 10             	add    $0x10,%esp
   111d4:	8d 65 f4             	lea    -0xc(%ebp),%esp
   111d7:	5b                   	pop    %ebx
   111d8:	5e                   	pop    %esi
   111d9:	5f                   	pop    %edi
   111da:	5d                   	pop    %ebp
   111db:	c3                   	ret    
   111dc:	8d 74 26 00          	lea    0x0(%esi,%eiz,1),%esi

000111e0 <setGdt>:
   111e0:	55                   	push   %ebp
   111e1:	89 e5                	mov    %esp,%ebp
   111e3:	53                   	push   %ebx
   111e4:	e8 53 0e 00 00       	call   1203c <__x86.get_pc_thunk.bx>
   111e9:	81 c3 67 1e 00 00    	add    $0x1e67,%ebx
   111ef:	83 ec 10             	sub    $0x10,%esp
   111f2:	8b 93 f4 ff ff ff    	mov    -0xc(%ebx),%edx
   111f8:	c7 c0 00 39 01 00    	mov    $0x13900,%eax
   111fe:	66 89 42 32          	mov    %ax,0x32(%edx)
   11202:	89 c1                	mov    %eax,%ecx
   11204:	c1 e8 18             	shr    $0x18,%eax
   11207:	88 42 37             	mov    %al,0x37(%edx)
   1120a:	c7 c0 e0 38 01 00    	mov    $0x138e0,%eax
   11210:	c1 e9 10             	shr    $0x10,%ecx
   11213:	88 4a 34             	mov    %cl,0x34(%edx)
   11216:	89 50 02             	mov    %edx,0x2(%eax)
   11219:	ba 00 08 00 00       	mov    $0x800,%edx
   1121e:	66 89 10             	mov    %dx,(%eax)
   11221:	50                   	push   %eax
   11222:	e8 89 04 00 00       	call   116b0 <set_gdt_reg>
   11227:	83 c4 10             	add    $0x10,%esp
   1122a:	8b 5d fc             	mov    -0x4(%ebp),%ebx
   1122d:	c9                   	leave  
   1122e:	c3                   	ret    
   1122f:	90                   	nop

00011230 <setTSS>:
   11230:	55                   	push   %ebp
   11231:	31 d2                	xor    %edx,%edx
   11233:	b9 18 00 00 00       	mov    $0x18,%ecx
   11238:	89 e5                	mov    %esp,%ebp
   1123a:	53                   	push   %ebx
   1123b:	e8 fc 0d 00 00       	call   1203c <__x86.get_pc_thunk.bx>
   11240:	81 c3 10 1e 00 00    	add    $0x1e10,%ebx
   11246:	83 ec 10             	sub    $0x10,%esp
   11249:	c7 c0 00 39 01 00    	mov    $0x13900,%eax
   1124f:	66 89 10             	mov    %dx,(%eax)
   11252:	c7 c2 00 40 01 00    	mov    $0x14000,%edx
   11258:	66 89 48 08          	mov    %cx,0x8(%eax)
   1125c:	31 c9                	xor    %ecx,%ecx
   1125e:	c7 40 0c 00 00 00 00 	movl   $0x0,0xc(%eax)
   11265:	66 89 48 18          	mov    %cx,0x18(%eax)
   11269:	b9 23 00 00 00       	mov    $0x23,%ecx
   1126e:	c7 40 14 00 00 00 00 	movl   $0x0,0x14(%eax)
   11275:	81 c2 00 20 00 00    	add    $0x2000,%edx
   1127b:	66 89 48 4c          	mov    %cx,0x4c(%eax)
   1127f:	b9 2b 00 00 00       	mov    $0x2b,%ecx
   11284:	89 50 04             	mov    %edx,0x4(%eax)
   11287:	31 d2                	xor    %edx,%edx
   11289:	66 89 48 54          	mov    %cx,0x54(%eax)
   1128d:	66 89 50 10          	mov    %dx,0x10(%eax)
   11291:	ba 2b 00 00 00       	mov    $0x2b,%edx
   11296:	31 c9                	xor    %ecx,%ecx
   11298:	66 89 50 48          	mov    %dx,0x48(%eax)
   1129c:	ba 2b 00 00 00       	mov    $0x2b,%edx
   112a1:	c7 40 1c 00 00 00 00 	movl   $0x0,0x1c(%eax)
   112a8:	66 89 50 50          	mov    %dx,0x50(%eax)
   112ac:	31 d2                	xor    %edx,%edx
   112ae:	c7 40 20 00 00 00 00 	movl   $0x0,0x20(%eax)
   112b5:	66 89 50 58          	mov    %dx,0x58(%eax)
   112b9:	ba 30 00 00 00       	mov    $0x30,%edx
   112be:	c7 40 24 00 02 00 00 	movl   $0x200,0x24(%eax)
   112c5:	c7 40 28 00 00 00 00 	movl   $0x0,0x28(%eax)
   112cc:	c7 40 2c 00 00 00 00 	movl   $0x0,0x2c(%eax)
   112d3:	c7 40 30 00 00 00 00 	movl   $0x0,0x30(%eax)
   112da:	c7 40 34 00 00 00 00 	movl   $0x0,0x34(%eax)
   112e1:	c7 40 38 f0 bf 11 00 	movl   $0x11bff0,0x38(%eax)
   112e8:	c7 40 3c f0 bf 11 00 	movl   $0x11bff0,0x3c(%eax)
   112ef:	c7 40 40 00 00 00 00 	movl   $0x0,0x40(%eax)
   112f6:	c7 40 44 00 00 00 00 	movl   $0x0,0x44(%eax)
   112fd:	66 89 48 5c          	mov    %cx,0x5c(%eax)
   11301:	66 89 50 60          	mov    %dx,0x60(%eax)
   11305:	c7 40 64 00 00 00 00 	movl   $0x0,0x64(%eax)
   1130c:	6a 30                	push   $0x30
   1130e:	e8 bd 03 00 00       	call   116d0 <set_task_reg>
   11313:	83 c4 10             	add    $0x10,%esp
   11316:	8b 5d fc             	mov    -0x4(%ebp),%ebx
   11319:	c9                   	leave  
   1131a:	c3                   	ret    
   1131b:	90                   	nop
   1131c:	8d 74 26 00          	lea    0x0(%esi,%eiz,1),%esi

00011320 <init_frames>:
   11320:	e8 1f 0d 00 00       	call   12044 <__x86.get_pc_thunk.ax>
   11325:	05 2b 1d 00 00       	add    $0x1d2b,%eax
   1132a:	55                   	push   %ebp
   1132b:	c7 c0 80 39 01 00    	mov    $0x13980,%eax
   11331:	89 e5                	mov    %esp,%ebp
   11333:	8d 88 00 04 00 00    	lea    0x400(%eax),%ecx
   11339:	89 c2                	mov    %eax,%edx
   1133b:	90                   	nop
   1133c:	8d 74 26 00          	lea    0x0(%esi,%eiz,1),%esi
   11340:	c6 02 00             	movb   $0x0,(%edx)
   11343:	83 c2 01             	add    $0x1,%edx
   11346:	39 ca                	cmp    %ecx,%edx
   11348:	75 f6                	jne    11340 <init_frames+0x20>
   1134a:	8d 90 00 01 00 00    	lea    0x100(%eax),%edx
   11350:	c6 00 01             	movb   $0x1,(%eax)
   11353:	83 c0 01             	add    $0x1,%eax
   11356:	39 c2                	cmp    %eax,%edx
   11358:	75 f6                	jne    11350 <init_frames+0x30>
   1135a:	31 c0                	xor    %eax,%eax
   1135c:	5d                   	pop    %ebp
   1135d:	c3                   	ret    
   1135e:	66 90                	xchg   %ax,%ax

00011360 <alloc_frame>:
   11360:	55                   	push   %ebp
   11361:	b8 00 01 00 00       	mov    $0x100,%eax
   11366:	e8 d5 0c 00 00       	call   12040 <__x86.get_pc_thunk.dx>
   1136b:	81 c2 e5 1c 00 00    	add    $0x1ce5,%edx
   11371:	89 e5                	mov    %esp,%ebp
   11373:	c7 c2 80 39 01 00    	mov    $0x13980,%edx
   11379:	eb 0f                	jmp    1138a <alloc_frame+0x2a>
   1137b:	90                   	nop
   1137c:	8d 74 26 00          	lea    0x0(%esi,%eiz,1),%esi
   11380:	83 c0 02             	add    $0x2,%eax
   11383:	3d 00 04 00 00       	cmp    $0x400,%eax
   11388:	74 16                	je     113a0 <alloc_frame+0x40>
   1138a:	80 3c 10 00          	cmpb   $0x0,(%eax,%edx,1)
   1138e:	75 f0                	jne    11380 <alloc_frame+0x20>
   11390:	c6 04 02 01          	movb   $0x1,(%edx,%eax,1)
   11394:	5d                   	pop    %ebp
   11395:	c3                   	ret    
   11396:	8d 76 00             	lea    0x0(%esi),%esi
   11399:	8d bc 27 00 00 00 00 	lea    0x0(%edi,%eiz,1),%edi
   113a0:	b8 ff ff ff ff       	mov    $0xffffffff,%eax
   113a5:	5d                   	pop    %ebp
   113a6:	c3                   	ret    
   113a7:	89 f6                	mov    %esi,%esi
   113a9:	8d bc 27 00 00 00 00 	lea    0x0(%edi,%eiz,1),%edi

000113b0 <free_user_pages>:
   113b0:	55                   	push   %ebp
   113b1:	89 e5                	mov    %esp,%ebp
   113b3:	56                   	push   %esi
   113b4:	53                   	push   %ebx
   113b5:	e8 82 0c 00 00       	call   1203c <__x86.get_pc_thunk.bx>
   113ba:	81 c3 96 1c 00 00    	add    $0x1c96,%ebx
   113c0:	83 ec 0c             	sub    $0xc,%esp
   113c3:	ff 75 08             	pushl  0x8(%ebp)
   113c6:	e8 55 f1 ff ff       	call   10520 <get_PT>
   113cb:	c7 c3 80 39 01 00    	mov    $0x13980,%ebx
   113d1:	8d 90 20 04 00 00    	lea    0x420(%eax),%edx
   113d7:	8d b0 70 04 00 00    	lea    0x470(%eax),%esi
   113dd:	83 c4 10             	add    $0x10,%esp
   113e0:	8b 0a                	mov    (%edx),%ecx
   113e2:	c1 e9 0c             	shr    $0xc,%ecx
   113e5:	8d 81 ff fe ff ff    	lea    -0x101(%ecx),%eax
   113eb:	3d fe 02 00 00       	cmp    $0x2fe,%eax
   113f0:	77 04                	ja     113f6 <free_user_pages+0x46>
   113f2:	c6 04 0b 00          	movb   $0x0,(%ebx,%ecx,1)
   113f6:	c7 02 00 00 00 00    	movl   $0x0,(%edx)
   113fc:	83 c2 04             	add    $0x4,%edx
   113ff:	39 d6                	cmp    %edx,%esi
   11401:	75 dd                	jne    113e0 <free_user_pages+0x30>
   11403:	8d 65 f8             	lea    -0x8(%ebp),%esp
   11406:	5b                   	pop    %ebx
   11407:	5e                   	pop    %esi
   11408:	5d                   	pop    %ebp
   11409:	c3                   	ret    
   1140a:	8d b6 00 00 00 00    	lea    0x0(%esi),%esi

00011410 <free_frame>:
   11410:	55                   	push   %ebp
   11411:	e8 32 0c 00 00       	call   12048 <__x86.get_pc_thunk.cx>
   11416:	81 c1 3a 1c 00 00    	add    $0x1c3a,%ecx
   1141c:	89 e5                	mov    %esp,%ebp
   1141e:	8b 45 08             	mov    0x8(%ebp),%eax
   11421:	8d 90 ff fe ff ff    	lea    -0x101(%eax),%edx
   11427:	81 fa fe 02 00 00    	cmp    $0x2fe,%edx
   1142d:	77 0a                	ja     11439 <free_frame+0x29>
   1142f:	c7 c2 80 39 01 00    	mov    $0x13980,%edx
   11435:	c6 04 02 00          	movb   $0x0,(%edx,%eax,1)
   11439:	5d                   	pop    %ebp
   1143a:	c3                   	ret    
   1143b:	90                   	nop
   1143c:	8d 74 26 00          	lea    0x0(%esi,%eiz,1),%esi

00011440 <set_ss_pag>:
   11440:	55                   	push   %ebp
   11441:	89 e5                	mov    %esp,%ebp
   11443:	8b 55 08             	mov    0x8(%ebp),%edx
   11446:	8b 45 0c             	mov    0xc(%ebp),%eax
   11449:	8d 04 82             	lea    (%edx,%eax,4),%eax
   1144c:	8b 55 10             	mov    0x10(%ebp),%edx
   1144f:	c1 e2 0c             	shl    $0xc,%edx
   11452:	89 10                	mov    %edx,(%eax)
   11454:	c6 00 07             	movb   $0x7,(%eax)
   11457:	5d                   	pop    %ebp
   11458:	c3                   	ret    
   11459:	8d b4 26 00 00 00 00 	lea    0x0(%esi,%eiz,1),%esi

00011460 <del_ss_pag>:
   11460:	55                   	push   %ebp
   11461:	89 e5                	mov    %esp,%ebp
   11463:	8b 45 08             	mov    0x8(%ebp),%eax
   11466:	8b 55 0c             	mov    0xc(%ebp),%edx
   11469:	c7 04 90 00 00 00 00 	movl   $0x0,(%eax,%edx,4)
   11470:	5d                   	pop    %ebp
   11471:	c3                   	ret    
   11472:	8d b4 26 00 00 00 00 	lea    0x0(%esi,%eiz,1),%esi
   11479:	8d bc 27 00 00 00 00 	lea    0x0(%edi,%eiz,1),%edi

00011480 <get_frame>:
   11480:	55                   	push   %ebp
   11481:	89 e5                	mov    %esp,%ebp
   11483:	8b 45 08             	mov    0x8(%ebp),%eax
   11486:	8b 55 0c             	mov    0xc(%ebp),%edx
   11489:	5d                   	pop    %ebp
   1148a:	8b 04 90             	mov    (%eax,%edx,4),%eax
   1148d:	c1 e8 0c             	shr    $0xc,%eax
   11490:	c3                   	ret    
   11491:	66 90                	xchg   %ax,%ax
   11493:	66 90                	xchg   %ax,%ax
   11495:	66 90                	xchg   %ax,%ax
   11497:	66 90                	xchg   %ax,%ax
   11499:	66 90                	xchg   %ax,%ax
   1149b:	66 90                	xchg   %ax,%ax
   1149d:	66 90                	xchg   %ax,%ax
   1149f:	90                   	nop

000114a0 <sys_write_console>:
   114a0:	55                   	push   %ebp
   114a1:	89 e5                	mov    %esp,%ebp
   114a3:	57                   	push   %edi
   114a4:	56                   	push   %esi
   114a5:	53                   	push   %ebx
   114a6:	e8 91 0b 00 00       	call   1203c <__x86.get_pc_thunk.bx>
   114ab:	81 c3 a5 1b 00 00    	add    $0x1ba5,%ebx
   114b1:	83 ec 0c             	sub    $0xc,%esp
   114b4:	8b 45 0c             	mov    0xc(%ebp),%eax
   114b7:	85 c0                	test   %eax,%eax
   114b9:	7e 23                	jle    114de <sys_write_console+0x3e>
   114bb:	8b 7d 08             	mov    0x8(%ebp),%edi
   114be:	8b 75 0c             	mov    0xc(%ebp),%esi
   114c1:	01 fe                	add    %edi,%esi
   114c3:	90                   	nop
   114c4:	8d 74 26 00          	lea    0x0(%esi,%eiz,1),%esi
   114c8:	0f be 17             	movsbl (%edi),%edx
   114cb:	83 ec 0c             	sub    $0xc,%esp
   114ce:	83 c7 01             	add    $0x1,%edi
   114d1:	52                   	push   %edx
   114d2:	e8 d9 ee ff ff       	call   103b0 <printc>
   114d7:	83 c4 10             	add    $0x10,%esp
   114da:	39 f7                	cmp    %esi,%edi
   114dc:	75 ea                	jne    114c8 <sys_write_console+0x28>
   114de:	8b 45 0c             	mov    0xc(%ebp),%eax
   114e1:	8d 65 f4             	lea    -0xc(%ebp),%esp
   114e4:	5b                   	pop    %ebx
   114e5:	5e                   	pop    %esi
   114e6:	5f                   	pop    %edi
   114e7:	5d                   	pop    %ebp
   114e8:	c3                   	ret    
   114e9:	66 90                	xchg   %ax,%ax
   114eb:	66 90                	xchg   %ax,%ax
   114ed:	66 90                	xchg   %ax,%ax
   114ef:	90                   	nop

000114f0 <copy_data>:
   114f0:	55                   	push   %ebp
   114f1:	89 e5                	mov    %esp,%ebp
   114f3:	57                   	push   %edi
   114f4:	56                   	push   %esi
   114f5:	53                   	push   %ebx
   114f6:	8b 5d 10             	mov    0x10(%ebp),%ebx
   114f9:	8b 55 08             	mov    0x8(%ebp),%edx
   114fc:	8b 4d 0c             	mov    0xc(%ebp),%ecx
   114ff:	83 fb 04             	cmp    $0x4,%ebx
   11502:	7e 4c                	jle    11550 <copy_data+0x60>
   11504:	8d 7b fb             	lea    -0x5(%ebx),%edi
   11507:	31 c0                	xor    %eax,%eax
   11509:	c1 ef 02             	shr    $0x2,%edi
   1150c:	8d 34 bd 04 00 00 00 	lea    0x4(,%edi,4),%esi
   11513:	90                   	nop
   11514:	8d 74 26 00          	lea    0x0(%esi,%eiz,1),%esi
   11518:	8b 1c 02             	mov    (%edx,%eax,1),%ebx
   1151b:	89 1c 01             	mov    %ebx,(%ecx,%eax,1)
   1151e:	83 c0 04             	add    $0x4,%eax
   11521:	39 f0                	cmp    %esi,%eax
   11523:	75 f3                	jne    11518 <copy_data+0x28>
   11525:	8b 5d 10             	mov    0x10(%ebp),%ebx
   11528:	f7 df                	neg    %edi
   1152a:	01 c2                	add    %eax,%edx
   1152c:	01 c1                	add    %eax,%ecx
   1152e:	8d 5c bb fc          	lea    -0x4(%ebx,%edi,4),%ebx
   11532:	31 f6                	xor    %esi,%esi
   11534:	0f b6 04 32          	movzbl (%edx,%esi,1),%eax
   11538:	88 04 31             	mov    %al,(%ecx,%esi,1)
   1153b:	83 c6 01             	add    $0x1,%esi
   1153e:	39 de                	cmp    %ebx,%esi
   11540:	75 f2                	jne    11534 <copy_data+0x44>
   11542:	5b                   	pop    %ebx
   11543:	5e                   	pop    %esi
   11544:	5f                   	pop    %edi
   11545:	5d                   	pop    %ebp
   11546:	c3                   	ret    
   11547:	89 f6                	mov    %esi,%esi
   11549:	8d bc 27 00 00 00 00 	lea    0x0(%edi,%eiz,1),%edi
   11550:	85 db                	test   %ebx,%ebx
   11552:	7f de                	jg     11532 <copy_data+0x42>
   11554:	5b                   	pop    %ebx
   11555:	5e                   	pop    %esi
   11556:	5f                   	pop    %edi
   11557:	5d                   	pop    %ebp
   11558:	c3                   	ret    
   11559:	8d b4 26 00 00 00 00 	lea    0x0(%esi,%eiz,1),%esi

00011560 <copy_from_user>:
   11560:	55                   	push   %ebp
   11561:	89 e5                	mov    %esp,%ebp
   11563:	57                   	push   %edi
   11564:	56                   	push   %esi
   11565:	53                   	push   %ebx
   11566:	8b 5d 10             	mov    0x10(%ebp),%ebx
   11569:	8b 55 08             	mov    0x8(%ebp),%edx
   1156c:	8b 4d 0c             	mov    0xc(%ebp),%ecx
   1156f:	83 fb 04             	cmp    $0x4,%ebx
   11572:	7e 4c                	jle    115c0 <copy_from_user+0x60>
   11574:	8d 7b fb             	lea    -0x5(%ebx),%edi
   11577:	31 c0                	xor    %eax,%eax
   11579:	c1 ef 02             	shr    $0x2,%edi
   1157c:	8d 34 bd 04 00 00 00 	lea    0x4(,%edi,4),%esi
   11583:	90                   	nop
   11584:	8d 74 26 00          	lea    0x0(%esi,%eiz,1),%esi
   11588:	8b 1c 02             	mov    (%edx,%eax,1),%ebx
   1158b:	89 1c 01             	mov    %ebx,(%ecx,%eax,1)
   1158e:	83 c0 04             	add    $0x4,%eax
   11591:	39 f0                	cmp    %esi,%eax
   11593:	75 f3                	jne    11588 <copy_from_user+0x28>
   11595:	8b 5d 10             	mov    0x10(%ebp),%ebx
   11598:	f7 df                	neg    %edi
   1159a:	01 c2                	add    %eax,%edx
   1159c:	01 c1                	add    %eax,%ecx
   1159e:	8d 5c bb fc          	lea    -0x4(%ebx,%edi,4),%ebx
   115a2:	31 f6                	xor    %esi,%esi
   115a4:	0f b6 04 32          	movzbl (%edx,%esi,1),%eax
   115a8:	88 04 31             	mov    %al,(%ecx,%esi,1)
   115ab:	83 c6 01             	add    $0x1,%esi
   115ae:	39 de                	cmp    %ebx,%esi
   115b0:	75 f2                	jne    115a4 <copy_from_user+0x44>
   115b2:	5b                   	pop    %ebx
   115b3:	31 c0                	xor    %eax,%eax
   115b5:	5e                   	pop    %esi
   115b6:	5f                   	pop    %edi
   115b7:	5d                   	pop    %ebp
   115b8:	c3                   	ret    
   115b9:	8d b4 26 00 00 00 00 	lea    0x0(%esi,%eiz,1),%esi
   115c0:	85 db                	test   %ebx,%ebx
   115c2:	7f de                	jg     115a2 <copy_from_user+0x42>
   115c4:	5b                   	pop    %ebx
   115c5:	31 c0                	xor    %eax,%eax
   115c7:	5e                   	pop    %esi
   115c8:	5f                   	pop    %edi
   115c9:	5d                   	pop    %ebp
   115ca:	c3                   	ret    
   115cb:	90                   	nop
   115cc:	8d 74 26 00          	lea    0x0(%esi,%eiz,1),%esi

000115d0 <copy_to_user>:
   115d0:	55                   	push   %ebp
   115d1:	89 e5                	mov    %esp,%ebp
   115d3:	5d                   	pop    %ebp
   115d4:	eb 8a                	jmp    11560 <copy_from_user>
   115d6:	8d 76 00             	lea    0x0(%esi),%esi
   115d9:	8d bc 27 00 00 00 00 	lea    0x0(%edi,%eiz,1),%edi

000115e0 <access_ok>:
   115e0:	55                   	push   %ebp
   115e1:	89 e5                	mov    %esp,%ebp
   115e3:	8b 45 0c             	mov    0xc(%ebp),%eax
   115e6:	89 c1                	mov    %eax,%ecx
   115e8:	03 45 10             	add    0x10(%ebp),%eax
   115eb:	c1 e9 0c             	shr    $0xc,%ecx
   115ee:	89 c2                	mov    %eax,%edx
   115f0:	31 c0                	xor    %eax,%eax
   115f2:	c1 ea 0c             	shr    $0xc,%edx
   115f5:	39 d1                	cmp    %edx,%ecx
   115f7:	77 20                	ja     11619 <access_ok+0x39>
   115f9:	81 fa 1c 01 00 00    	cmp    $0x11c,%edx
   115ff:	0f 96 c2             	setbe  %dl
   11602:	83 7d 08 01          	cmpl   $0x1,0x8(%ebp)
   11606:	75 18                	jne    11620 <access_ok+0x40>
   11608:	81 f9 07 01 00 00    	cmp    $0x107,%ecx
   1160e:	76 10                	jbe    11620 <access_ok+0x40>
   11610:	84 d2                	test   %dl,%dl
   11612:	b8 01 00 00 00       	mov    $0x1,%eax
   11617:	74 07                	je     11620 <access_ok+0x40>
   11619:	5d                   	pop    %ebp
   1161a:	c3                   	ret    
   1161b:	90                   	nop
   1161c:	8d 74 26 00          	lea    0x0(%esi,%eiz,1),%esi
   11620:	31 c0                	xor    %eax,%eax
   11622:	81 f9 ff 00 00 00    	cmp    $0xff,%ecx
   11628:	0f 97 c0             	seta   %al
   1162b:	21 d0                	and    %edx,%eax
   1162d:	5d                   	pop    %ebp
   1162e:	c3                   	ret    
   1162f:	90                   	nop

00011630 <get_ticks>:
   11630:	55                   	push   %ebp
   11631:	89 e5                	mov    %esp,%ebp
   11633:	56                   	push   %esi
   11634:	53                   	push   %ebx
   11635:	0f 31                	rdtsc  
   11637:	89 c1                	mov    %eax,%ecx
   11639:	31 c0                	xor    %eax,%eax
   1163b:	31 db                	xor    %ebx,%ebx
   1163d:	01 c8                	add    %ecx,%eax
   1163f:	11 da                	adc    %ebx,%edx
   11641:	31 f6                	xor    %esi,%esi
   11643:	85 d2                	test   %edx,%edx
   11645:	89 c1                	mov    %eax,%ecx
   11647:	89 d3                	mov    %edx,%ebx
   11649:	74 1b                	je     11666 <get_ticks+0x36>
   1164b:	89 d8                	mov    %ebx,%eax
   1164d:	ba a9 d7 7a 26       	mov    $0x267ad7a9,%edx
   11652:	f7 e2                	mul    %edx
   11654:	89 d0                	mov    %edx,%eax
   11656:	89 d6                	mov    %edx,%esi
   11658:	c1 e8 0e             	shr    $0xe,%eax
   1165b:	c1 ee 0e             	shr    $0xe,%esi
   1165e:	69 c0 c8 a9 01 00    	imul   $0x1a9c8,%eax,%eax
   11664:	29 c3                	sub    %eax,%ebx
   11666:	89 da                	mov    %ebx,%edx
   11668:	89 c8                	mov    %ecx,%eax
   1166a:	bb c8 a9 01 00       	mov    $0x1a9c8,%ebx
   1166f:	f7 f3                	div    %ebx
   11671:	89 f2                	mov    %esi,%edx
   11673:	5b                   	pop    %ebx
   11674:	5e                   	pop    %esi
   11675:	5d                   	pop    %ebp
   11676:	c3                   	ret    
   11677:	66 90                	xchg   %ax,%ax
   11679:	66 90                	xchg   %ax,%ax
   1167b:	66 90                	xchg   %ax,%ax
   1167d:	66 90                	xchg   %ax,%ax
   1167f:	90                   	nop

00011680 <get_eflags>:
   11680:	55                   	push   %ebp
   11681:	89 e5                	mov    %esp,%ebp
   11683:	9c                   	pushf  
   11684:	58                   	pop    %eax
   11685:	5d                   	pop    %ebp
   11686:	c3                   	ret    
   11687:	89 f6                	mov    %esi,%esi
   11689:	8d bc 27 00 00 00 00 	lea    0x0(%edi,%eiz,1),%edi

00011690 <set_eflags>:
   11690:	55                   	push   %ebp
   11691:	89 e5                	mov    %esp,%ebp
   11693:	6a 00                	push   $0x0
   11695:	9d                   	popf   
   11696:	5d                   	pop    %ebp
   11697:	c3                   	ret    
   11698:	90                   	nop
   11699:	8d b4 26 00 00 00 00 	lea    0x0(%esi,%eiz,1),%esi

000116a0 <set_idt_reg>:
   116a0:	55                   	push   %ebp
   116a1:	89 e5                	mov    %esp,%ebp
   116a3:	8b 45 08             	mov    0x8(%ebp),%eax
   116a6:	0f 01 18             	lidtl  (%eax)
   116a9:	5d                   	pop    %ebp
   116aa:	c3                   	ret    
   116ab:	90                   	nop
   116ac:	8d 74 26 00          	lea    0x0(%esi,%eiz,1),%esi

000116b0 <set_gdt_reg>:
   116b0:	55                   	push   %ebp
   116b1:	89 e5                	mov    %esp,%ebp
   116b3:	8b 45 08             	mov    0x8(%ebp),%eax
   116b6:	0f 01 10             	lgdtl  (%eax)
   116b9:	5d                   	pop    %ebp
   116ba:	c3                   	ret    
   116bb:	90                   	nop
   116bc:	8d 74 26 00          	lea    0x0(%esi,%eiz,1),%esi

000116c0 <set_ldt_reg>:
   116c0:	55                   	push   %ebp
   116c1:	89 e5                	mov    %esp,%ebp
   116c3:	8b 45 08             	mov    0x8(%ebp),%eax
   116c6:	0f 00 d0             	lldt   %ax
   116c9:	5d                   	pop    %ebp
   116ca:	c3                   	ret    
   116cb:	90                   	nop
   116cc:	8d 74 26 00          	lea    0x0(%esi,%eiz,1),%esi

000116d0 <set_task_reg>:
   116d0:	55                   	push   %ebp
   116d1:	89 e5                	mov    %esp,%ebp
   116d3:	8b 45 08             	mov    0x8(%ebp),%eax
   116d6:	0f 00 d8             	ltr    %ax
   116d9:	5d                   	pop    %ebp
   116da:	c3                   	ret    
   116db:	90                   	nop
   116dc:	8d 74 26 00          	lea    0x0(%esi,%eiz,1),%esi

000116e0 <return_gate>:
   116e0:	55                   	push   %ebp
   116e1:	e8 5e 09 00 00       	call   12044 <__x86.get_pc_thunk.ax>
   116e6:	05 6a 19 00 00       	add    $0x196a,%eax
   116eb:	89 e5                	mov    %esp,%ebp
   116ed:	83 ec 0c             	sub    $0xc,%esp
   116f0:	8b 55 08             	mov    0x8(%ebp),%edx
   116f3:	c7 c0 c0 2f 01 00    	mov    $0x12fc0,%eax
   116f9:	66 89 55 fc          	mov    %dx,-0x4(%ebp)
   116fd:	8b 55 0c             	mov    0xc(%ebp),%edx
   11700:	8b 00                	mov    (%eax),%eax
   11702:	66 89 55 f8          	mov    %dx,-0x8(%ebp)
   11706:	8b 55 14             	mov    0x14(%ebp),%edx
   11709:	66 89 55 f4          	mov    %dx,-0xc(%ebp)
   1170d:	8b 10                	mov    (%eax),%edx
   1170f:	8e 45 fc             	mov    -0x4(%ebp),%es
   11712:	8e 5d fc             	mov    -0x4(%ebp),%ds
   11715:	8b 45 10             	mov    0x10(%ebp),%eax
   11718:	83 c0 0c             	add    $0xc,%eax
   1171b:	89 10                	mov    %edx,(%eax)
   1171d:	ff 75 f8             	pushl  -0x8(%ebp)
   11720:	ff 75 10             	pushl  0x10(%ebp)
   11723:	ff 75 f4             	pushl  -0xc(%ebp)
   11726:	ff 75 18             	pushl  0x18(%ebp)
   11729:	cb                   	lret   
   1172a:	c9                   	leave  
   1172b:	c3                   	ret    
   1172c:	8d 74 26 00          	lea    0x0(%esi,%eiz,1),%esi

00011730 <enable_int>:
   11730:	55                   	push   %ebp
   11731:	89 e5                	mov    %esp,%ebp
   11733:	b0 fc                	mov    $0xfc,%al
   11735:	e6 21                	out    %al,$0x21
   11737:	e8 04 00 00 00       	call   11740 <delay>
   1173c:	fb                   	sti    
   1173d:	5d                   	pop    %ebp
   1173e:	c3                   	ret    
   1173f:	90                   	nop

00011740 <delay>:
   11740:	55                   	push   %ebp
   11741:	89 e5                	mov    %esp,%ebp
   11743:	eb 00                	jmp    11745 <a>

00011745 <a>:
   11745:	5d                   	pop    %ebp
   11746:	c3                   	ret    
   11747:	66 90                	xchg   %ax,%ax
   11749:	66 90                	xchg   %ax,%ax
   1174b:	66 90                	xchg   %ax,%ax
   1174d:	66 90                	xchg   %ax,%ax
   1174f:	90                   	nop

00011750 <INIT_LIST_HEAD>:
   11750:	55                   	push   %ebp
   11751:	89 e5                	mov    %esp,%ebp
   11753:	8b 45 08             	mov    0x8(%ebp),%eax
   11756:	89 00                	mov    %eax,(%eax)
   11758:	89 40 04             	mov    %eax,0x4(%eax)
   1175b:	5d                   	pop    %ebp
   1175c:	c3                   	ret    
   1175d:	8d 76 00             	lea    0x0(%esi),%esi

00011760 <list_add>:
   11760:	55                   	push   %ebp
   11761:	89 e5                	mov    %esp,%ebp
   11763:	8b 55 0c             	mov    0xc(%ebp),%edx
   11766:	8b 45 08             	mov    0x8(%ebp),%eax
   11769:	8b 0a                	mov    (%edx),%ecx
   1176b:	89 41 04             	mov    %eax,0x4(%ecx)
   1176e:	89 08                	mov    %ecx,(%eax)
   11770:	89 50 04             	mov    %edx,0x4(%eax)
   11773:	89 02                	mov    %eax,(%edx)
   11775:	5d                   	pop    %ebp
   11776:	c3                   	ret    
   11777:	89 f6                	mov    %esi,%esi
   11779:	8d bc 27 00 00 00 00 	lea    0x0(%edi,%eiz,1),%edi

00011780 <list_add_tail>:
   11780:	55                   	push   %ebp
   11781:	89 e5                	mov    %esp,%ebp
   11783:	8b 55 0c             	mov    0xc(%ebp),%edx
   11786:	8b 45 08             	mov    0x8(%ebp),%eax
   11789:	8b 4a 04             	mov    0x4(%edx),%ecx
   1178c:	89 42 04             	mov    %eax,0x4(%edx)
   1178f:	89 10                	mov    %edx,(%eax)
   11791:	89 48 04             	mov    %ecx,0x4(%eax)
   11794:	89 01                	mov    %eax,(%ecx)
   11796:	5d                   	pop    %ebp
   11797:	c3                   	ret    
   11798:	90                   	nop
   11799:	8d b4 26 00 00 00 00 	lea    0x0(%esi,%eiz,1),%esi

000117a0 <list_del>:
   117a0:	55                   	push   %ebp
   117a1:	89 e5                	mov    %esp,%ebp
   117a3:	8b 45 08             	mov    0x8(%ebp),%eax
   117a6:	8b 08                	mov    (%eax),%ecx
   117a8:	8b 50 04             	mov    0x4(%eax),%edx
   117ab:	89 51 04             	mov    %edx,0x4(%ecx)
   117ae:	89 0a                	mov    %ecx,(%edx)
   117b0:	c7 00 00 00 00 00    	movl   $0x0,(%eax)
   117b6:	c7 40 04 00 00 00 00 	movl   $0x0,0x4(%eax)
   117bd:	5d                   	pop    %ebp
   117be:	c3                   	ret    
   117bf:	90                   	nop

000117c0 <list_is_last>:
   117c0:	55                   	push   %ebp
   117c1:	89 e5                	mov    %esp,%ebp
   117c3:	8b 45 08             	mov    0x8(%ebp),%eax
   117c6:	8b 55 0c             	mov    0xc(%ebp),%edx
   117c9:	5d                   	pop    %ebp
   117ca:	39 10                	cmp    %edx,(%eax)
   117cc:	0f 94 c0             	sete   %al
   117cf:	0f b6 c0             	movzbl %al,%eax
   117d2:	c3                   	ret    
   117d3:	8d b6 00 00 00 00    	lea    0x0(%esi),%esi
   117d9:	8d bc 27 00 00 00 00 	lea    0x0(%edi,%eiz,1),%edi

000117e0 <list_empty>:
   117e0:	55                   	push   %ebp
   117e1:	89 e5                	mov    %esp,%ebp
   117e3:	8b 45 08             	mov    0x8(%ebp),%eax
   117e6:	5d                   	pop    %ebp
   117e7:	39 00                	cmp    %eax,(%eax)
   117e9:	0f 94 c0             	sete   %al
   117ec:	0f b6 c0             	movzbl %al,%eax
   117ef:	c3                   	ret    

000117f0 <task_switch>:
   117f0:	55                   	push   %ebp
   117f1:	89 e5                	mov    %esp,%ebp
   117f3:	57                   	push   %edi
   117f4:	56                   	push   %esi
   117f5:	53                   	push   %ebx
   117f6:	ff 75 08             	pushl  0x8(%ebp)
   117f9:	e8 02 ef ff ff       	call   10700 <inner_task_switch>
   117fe:	83 c4 04             	add    $0x4,%esp
   11801:	5b                   	pop    %ebx
   11802:	5e                   	pop    %esi
   11803:	5f                   	pop    %edi
   11804:	5d                   	pop    %ebp
   11805:	c3                   	ret    

00011806 <getebp>:
   11806:	89 e8                	mov    %ebp,%eax
   11808:	c3                   	ret    

00011809 <setesp>:
   11809:	8b 64 24 04          	mov    0x4(%esp),%esp
   1180d:	5d                   	pop    %ebp
   1180e:	c3                   	ret    
   1180f:	90                   	nop

00011810 <itoa.part.0>:
   11810:	85 c0                	test   %eax,%eax
   11812:	7e 66                	jle    1187a <itoa.part.0+0x6a>
   11814:	55                   	push   %ebp
   11815:	89 c1                	mov    %eax,%ecx
   11817:	89 e5                	mov    %esp,%ebp
   11819:	57                   	push   %edi
   1181a:	bf 67 66 66 66       	mov    $0x66666667,%edi
   1181f:	56                   	push   %esi
   11820:	31 f6                	xor    %esi,%esi
   11822:	53                   	push   %ebx
   11823:	89 d3                	mov    %edx,%ebx
   11825:	8d 76 00             	lea    0x0(%esi),%esi
   11828:	89 c8                	mov    %ecx,%eax
   1182a:	f7 ef                	imul   %edi
   1182c:	89 c8                	mov    %ecx,%eax
   1182e:	c1 f8 1f             	sar    $0x1f,%eax
   11831:	c1 fa 02             	sar    $0x2,%edx
   11834:	29 c2                	sub    %eax,%edx
   11836:	8d 04 92             	lea    (%edx,%edx,4),%eax
   11839:	01 c0                	add    %eax,%eax
   1183b:	29 c1                	sub    %eax,%ecx
   1183d:	83 c1 30             	add    $0x30,%ecx
   11840:	88 0c 33             	mov    %cl,(%ebx,%esi,1)
   11843:	83 c6 01             	add    $0x1,%esi
   11846:	85 d2                	test   %edx,%edx
   11848:	89 d1                	mov    %edx,%ecx
   1184a:	75 dc                	jne    11828 <itoa.part.0+0x18>
   1184c:	89 f2                	mov    %esi,%edx
   1184e:	d1 fa                	sar    %edx
   11850:	74 24                	je     11876 <itoa.part.0+0x66>
   11852:	8d 44 1e ff          	lea    -0x1(%esi,%ebx,1),%eax
   11856:	8d 34 13             	lea    (%ebx,%edx,1),%esi
   11859:	8d b4 26 00 00 00 00 	lea    0x0(%esi,%eiz,1),%esi
   11860:	0f b6 08             	movzbl (%eax),%ecx
   11863:	0f b6 13             	movzbl (%ebx),%edx
   11866:	83 c3 01             	add    $0x1,%ebx
   11869:	83 e8 01             	sub    $0x1,%eax
   1186c:	88 4b ff             	mov    %cl,-0x1(%ebx)
   1186f:	88 50 01             	mov    %dl,0x1(%eax)
   11872:	39 de                	cmp    %ebx,%esi
   11874:	75 ea                	jne    11860 <itoa.part.0+0x50>
   11876:	5b                   	pop    %ebx
   11877:	5e                   	pop    %esi
   11878:	5f                   	pop    %edi
   11879:	5d                   	pop    %ebp
   1187a:	f3 c3                	repz ret 
   1187c:	8d 74 26 00          	lea    0x0(%esi,%eiz,1),%esi

00011880 <itoa>:
   11880:	55                   	push   %ebp
   11881:	89 e5                	mov    %esp,%ebp
   11883:	8b 45 08             	mov    0x8(%ebp),%eax
   11886:	8b 55 0c             	mov    0xc(%ebp),%edx
   11889:	85 c0                	test   %eax,%eax
   1188b:	74 03                	je     11890 <itoa+0x10>
   1188d:	5d                   	pop    %ebp
   1188e:	eb 80                	jmp    11810 <itoa.part.0>
   11890:	c6 02 30             	movb   $0x30,(%edx)
   11893:	5d                   	pop    %ebp
   11894:	c3                   	ret    
   11895:	8d 74 26 00          	lea    0x0(%esi,%eiz,1),%esi
   11899:	8d bc 27 00 00 00 00 	lea    0x0(%edi,%eiz,1),%edi

000118a0 <zeos_show_clock>:
   118a0:	a1 68 30 01 00       	mov    0x13068,%eax
   118a5:	83 c0 01             	add    $0x1,%eax
   118a8:	83 f8 12             	cmp    $0x12,%eax
   118ab:	a3 68 30 01 00       	mov    %eax,0x13068
   118b0:	74 06                	je     118b8 <zeos_show_clock+0x18>
   118b2:	c3                   	ret    
   118b3:	90                   	nop
   118b4:	8d 74 26 00          	lea    0x0(%esi,%eiz,1),%esi
   118b8:	55                   	push   %ebp
   118b9:	89 e5                	mov    %esp,%ebp
   118bb:	53                   	push   %ebx
   118bc:	83 ec 10             	sub    $0x10,%esp
   118bf:	a1 64 30 01 00       	mov    0x13064,%eax
   118c4:	c7 05 68 30 01 00 00 	movl   $0x0,0x13068
   118cb:	00 00 00 
   118ce:	83 c0 01             	add    $0x1,%eax
   118d1:	83 f8 3c             	cmp    $0x3c,%eax
   118d4:	a3 64 30 01 00       	mov    %eax,0x13064
   118d9:	0f 84 e1 00 00 00    	je     119c0 <zeos_show_clock+0x120>
   118df:	a1 60 30 01 00       	mov    0x13060,%eax
   118e4:	85 c0                	test   %eax,%eax
   118e6:	0f 85 c4 00 00 00    	jne    119b0 <zeos_show_clock+0x110>
   118ec:	c6 45 f4 30          	movb   $0x30,-0xc(%ebp)
   118f0:	a1 64 30 01 00       	mov    0x13064,%eax
   118f5:	31 c9                	xor    %ecx,%ecx
   118f7:	ba 30 02 00 00       	mov    $0x230,%edx
   118fc:	85 c0                	test   %eax,%eax
   118fe:	0f 85 8c 00 00 00    	jne    11990 <zeos_show_clock+0xf0>
   11904:	83 3d 60 30 01 00 09 	cmpl   $0x9,0x13060
   1190b:	7f 4b                	jg     11958 <zeos_show_clock+0xb8>
   1190d:	b8 8c 80 0b 00       	mov    $0xb808c,%eax
   11912:	66 c7 00 30 02       	movw   $0x230,(%eax)
   11917:	0f b6 45 f4          	movzbl -0xc(%ebp),%eax
   1191b:	bb 8e 80 0b 00       	mov    $0xb808e,%ebx
   11920:	80 cc 02             	or     $0x2,%ah
   11923:	66 89 03             	mov    %ax,(%ebx)
   11926:	b8 90 80 0b 00       	mov    $0xb8090,%eax
   1192b:	66 c7 00 3a 02       	movw   $0x23a,(%eax)
   11930:	83 f9 09             	cmp    $0x9,%ecx
   11933:	b8 92 80 0b 00       	mov    $0xb8092,%eax
   11938:	7e 46                	jle    11980 <zeos_show_clock+0xe0>
   1193a:	66 89 10             	mov    %dx,(%eax)
   1193d:	0f b6 45 f9          	movzbl -0x7(%ebp),%eax
   11941:	ba 94 80 0b 00       	mov    $0xb8094,%edx
   11946:	80 cc 02             	or     $0x2,%ah
   11949:	66 89 02             	mov    %ax,(%edx)
   1194c:	83 c4 10             	add    $0x10,%esp
   1194f:	5b                   	pop    %ebx
   11950:	5d                   	pop    %ebp
   11951:	c3                   	ret    
   11952:	8d b6 00 00 00 00    	lea    0x0(%esi),%esi
   11958:	0f b6 45 f4          	movzbl -0xc(%ebp),%eax
   1195c:	bb 8c 80 0b 00       	mov    $0xb808c,%ebx
   11961:	80 cc 02             	or     $0x2,%ah
   11964:	66 89 03             	mov    %ax,(%ebx)
   11967:	0f b6 45 f5          	movzbl -0xb(%ebp),%eax
   1196b:	bb 8e 80 0b 00       	mov    $0xb808e,%ebx
   11970:	80 cc 02             	or     $0x2,%ah
   11973:	66 89 03             	mov    %ax,(%ebx)
   11976:	eb ae                	jmp    11926 <zeos_show_clock+0x86>
   11978:	90                   	nop
   11979:	8d b4 26 00 00 00 00 	lea    0x0(%esi,%eiz,1),%esi
   11980:	66 c7 00 30 02       	movw   $0x230,(%eax)
   11985:	b8 94 80 0b 00       	mov    $0xb8094,%eax
   1198a:	66 89 10             	mov    %dx,(%eax)
   1198d:	eb bd                	jmp    1194c <zeos_show_clock+0xac>
   1198f:	90                   	nop
   11990:	8d 55 f8             	lea    -0x8(%ebp),%edx
   11993:	e8 78 fe ff ff       	call   11810 <itoa.part.0>
   11998:	0f b6 55 f8          	movzbl -0x8(%ebp),%edx
   1199c:	8b 0d 64 30 01 00    	mov    0x13064,%ecx
   119a2:	80 ce 02             	or     $0x2,%dh
   119a5:	e9 5a ff ff ff       	jmp    11904 <zeos_show_clock+0x64>
   119aa:	8d b6 00 00 00 00    	lea    0x0(%esi),%esi
   119b0:	8d 55 f4             	lea    -0xc(%ebp),%edx
   119b3:	e8 58 fe ff ff       	call   11810 <itoa.part.0>
   119b8:	e9 33 ff ff ff       	jmp    118f0 <zeos_show_clock+0x50>
   119bd:	8d 76 00             	lea    0x0(%esi),%esi
   119c0:	a1 60 30 01 00       	mov    0x13060,%eax
   119c5:	c7 05 64 30 01 00 00 	movl   $0x0,0x13064
   119cc:	00 00 00 
   119cf:	83 c0 01             	add    $0x1,%eax
   119d2:	a3 60 30 01 00       	mov    %eax,0x13060
   119d7:	e9 08 ff ff ff       	jmp    118e4 <zeos_show_clock+0x44>
   119dc:	8d 74 26 00          	lea    0x0(%esi,%eiz,1),%esi

000119e0 <divide_error_routine>:
   119e0:	55                   	push   %ebp
   119e1:	89 e5                	mov    %esp,%ebp
   119e3:	83 ec 14             	sub    $0x14,%esp
   119e6:	68 79 20 01 00       	push   $0x12079
   119eb:	e8 d0 ea ff ff       	call   104c0 <printk>
   119f0:	83 c4 10             	add    $0x10,%esp
   119f3:	eb fe                	jmp    119f3 <divide_error_routine+0x13>
   119f5:	8d 74 26 00          	lea    0x0(%esi,%eiz,1),%esi
   119f9:	8d bc 27 00 00 00 00 	lea    0x0(%edi,%eiz,1),%edi

00011a00 <debug_routine>:
   11a00:	55                   	push   %ebp
   11a01:	89 e5                	mov    %esp,%ebp
   11a03:	83 ec 14             	sub    $0x14,%esp
   11a06:	68 8e 20 01 00       	push   $0x1208e
   11a0b:	e8 b0 ea ff ff       	call   104c0 <printk>
   11a10:	83 c4 10             	add    $0x10,%esp
   11a13:	eb fe                	jmp    11a13 <debug_routine+0x13>
   11a15:	8d 74 26 00          	lea    0x0(%esi,%eiz,1),%esi
   11a19:	8d bc 27 00 00 00 00 	lea    0x0(%edi,%eiz,1),%edi

00011a20 <nm1_routine>:
   11a20:	55                   	push   %ebp
   11a21:	89 e5                	mov    %esp,%ebp
   11a23:	83 ec 14             	sub    $0x14,%esp
   11a26:	68 9c 20 01 00       	push   $0x1209c
   11a2b:	e8 90 ea ff ff       	call   104c0 <printk>
   11a30:	83 c4 10             	add    $0x10,%esp
   11a33:	eb fe                	jmp    11a33 <nm1_routine+0x13>
   11a35:	8d 74 26 00          	lea    0x0(%esi,%eiz,1),%esi
   11a39:	8d bc 27 00 00 00 00 	lea    0x0(%edi,%eiz,1),%edi

00011a40 <breakpoint_routine>:
   11a40:	55                   	push   %ebp
   11a41:	89 e5                	mov    %esp,%ebp
   11a43:	83 ec 14             	sub    $0x14,%esp
   11a46:	68 a8 20 01 00       	push   $0x120a8
   11a4b:	e8 70 ea ff ff       	call   104c0 <printk>
   11a50:	83 c4 10             	add    $0x10,%esp
   11a53:	eb fe                	jmp    11a53 <breakpoint_routine+0x13>
   11a55:	8d 74 26 00          	lea    0x0(%esi,%eiz,1),%esi
   11a59:	8d bc 27 00 00 00 00 	lea    0x0(%edi,%eiz,1),%edi

00011a60 <overflow_routine>:
   11a60:	55                   	push   %ebp
   11a61:	89 e5                	mov    %esp,%ebp
   11a63:	83 ec 14             	sub    $0x14,%esp
   11a66:	68 bb 20 01 00       	push   $0x120bb
   11a6b:	e8 50 ea ff ff       	call   104c0 <printk>
   11a70:	83 c4 10             	add    $0x10,%esp
   11a73:	eb fe                	jmp    11a73 <overflow_routine+0x13>
   11a75:	8d 74 26 00          	lea    0x0(%esi,%eiz,1),%esi
   11a79:	8d bc 27 00 00 00 00 	lea    0x0(%edi,%eiz,1),%edi

00011a80 <bounds_check_routine>:
   11a80:	55                   	push   %ebp
   11a81:	89 e5                	mov    %esp,%ebp
   11a83:	83 ec 14             	sub    $0x14,%esp
   11a86:	68 cc 20 01 00       	push   $0x120cc
   11a8b:	e8 30 ea ff ff       	call   104c0 <printk>
   11a90:	83 c4 10             	add    $0x10,%esp
   11a93:	eb fe                	jmp    11a93 <bounds_check_routine+0x13>
   11a95:	8d 74 26 00          	lea    0x0(%esi,%eiz,1),%esi
   11a99:	8d bc 27 00 00 00 00 	lea    0x0(%edi,%eiz,1),%edi

00011aa0 <invalid_opcode_routine>:
   11aa0:	55                   	push   %ebp
   11aa1:	89 e5                	mov    %esp,%ebp
   11aa3:	83 ec 14             	sub    $0x14,%esp
   11aa6:	68 e1 20 01 00       	push   $0x120e1
   11aab:	e8 10 ea ff ff       	call   104c0 <printk>
   11ab0:	83 c4 10             	add    $0x10,%esp
   11ab3:	eb fe                	jmp    11ab3 <invalid_opcode_routine+0x13>
   11ab5:	8d 74 26 00          	lea    0x0(%esi,%eiz,1),%esi
   11ab9:	8d bc 27 00 00 00 00 	lea    0x0(%edi,%eiz,1),%edi

00011ac0 <device_not_available_routine>:
   11ac0:	55                   	push   %ebp
   11ac1:	89 e5                	mov    %esp,%ebp
   11ac3:	83 ec 14             	sub    $0x14,%esp
   11ac6:	68 f8 20 01 00       	push   $0x120f8
   11acb:	e8 f0 e9 ff ff       	call   104c0 <printk>
   11ad0:	83 c4 10             	add    $0x10,%esp
   11ad3:	eb fe                	jmp    11ad3 <device_not_available_routine+0x13>
   11ad5:	8d 74 26 00          	lea    0x0(%esi,%eiz,1),%esi
   11ad9:	8d bc 27 00 00 00 00 	lea    0x0(%edi,%eiz,1),%edi

00011ae0 <double_fault_routine>:
   11ae0:	55                   	push   %ebp
   11ae1:	89 e5                	mov    %esp,%ebp
   11ae3:	83 ec 14             	sub    $0x14,%esp
   11ae6:	68 15 21 01 00       	push   $0x12115
   11aeb:	e8 d0 e9 ff ff       	call   104c0 <printk>
   11af0:	83 c4 10             	add    $0x10,%esp
   11af3:	eb fe                	jmp    11af3 <double_fault_routine+0x13>
   11af5:	8d 74 26 00          	lea    0x0(%esi,%eiz,1),%esi
   11af9:	8d bc 27 00 00 00 00 	lea    0x0(%edi,%eiz,1),%edi

00011b00 <coprocessor_segment_overrun_routine>:
   11b00:	55                   	push   %ebp
   11b01:	89 e5                	mov    %esp,%ebp
   11b03:	83 ec 14             	sub    $0x14,%esp
   11b06:	68 88 2f 01 00       	push   $0x12f88
   11b0b:	e8 b0 e9 ff ff       	call   104c0 <printk>
   11b10:	83 c4 10             	add    $0x10,%esp
   11b13:	eb fe                	jmp    11b13 <coprocessor_segment_overrun_routine+0x13>
   11b15:	8d 74 26 00          	lea    0x0(%esi,%eiz,1),%esi
   11b19:	8d bc 27 00 00 00 00 	lea    0x0(%edi,%eiz,1),%edi

00011b20 <invalid_tss_routine>:
   11b20:	55                   	push   %ebp
   11b21:	89 e5                	mov    %esp,%ebp
   11b23:	83 ec 14             	sub    $0x14,%esp
   11b26:	68 24 21 01 00       	push   $0x12124
   11b2b:	e8 90 e9 ff ff       	call   104c0 <printk>
   11b30:	83 c4 10             	add    $0x10,%esp
   11b33:	eb fe                	jmp    11b33 <invalid_tss_routine+0x13>
   11b35:	8d 74 26 00          	lea    0x0(%esi,%eiz,1),%esi
   11b39:	8d bc 27 00 00 00 00 	lea    0x0(%edi,%eiz,1),%edi

00011b40 <segment_not_present_routine>:
   11b40:	55                   	push   %ebp
   11b41:	89 e5                	mov    %esp,%ebp
   11b43:	83 ec 14             	sub    $0x14,%esp
   11b46:	68 38 21 01 00       	push   $0x12138
   11b4b:	e8 70 e9 ff ff       	call   104c0 <printk>
   11b50:	83 c4 10             	add    $0x10,%esp
   11b53:	eb fe                	jmp    11b53 <segment_not_present_routine+0x13>
   11b55:	8d 74 26 00          	lea    0x0(%esi,%eiz,1),%esi
   11b59:	8d bc 27 00 00 00 00 	lea    0x0(%edi,%eiz,1),%edi

00011b60 <stack_exception_routine>:
   11b60:	55                   	push   %ebp
   11b61:	89 e5                	mov    %esp,%ebp
   11b63:	83 ec 14             	sub    $0x14,%esp
   11b66:	68 54 21 01 00       	push   $0x12154
   11b6b:	e8 50 e9 ff ff       	call   104c0 <printk>
   11b70:	83 c4 10             	add    $0x10,%esp
   11b73:	eb fe                	jmp    11b73 <stack_exception_routine+0x13>
   11b75:	8d 74 26 00          	lea    0x0(%esi,%eiz,1),%esi
   11b79:	8d bc 27 00 00 00 00 	lea    0x0(%edi,%eiz,1),%edi

00011b80 <general_protection_routine>:
   11b80:	55                   	push   %ebp
   11b81:	89 e5                	mov    %esp,%ebp
   11b83:	83 ec 14             	sub    $0x14,%esp
   11b86:	68 6c 21 01 00       	push   $0x1216c
   11b8b:	e8 30 e9 ff ff       	call   104c0 <printk>
   11b90:	83 c4 10             	add    $0x10,%esp
   11b93:	eb fe                	jmp    11b93 <general_protection_routine+0x13>
   11b95:	8d 74 26 00          	lea    0x0(%esi,%eiz,1),%esi
   11b99:	8d bc 27 00 00 00 00 	lea    0x0(%edi,%eiz,1),%edi

00011ba0 <page_fault_routine>:
   11ba0:	55                   	push   %ebp
   11ba1:	89 e5                	mov    %esp,%ebp
   11ba3:	83 ec 14             	sub    $0x14,%esp
   11ba6:	68 87 21 01 00       	push   $0x12187
   11bab:	e8 10 e9 ff ff       	call   104c0 <printk>
   11bb0:	83 c4 10             	add    $0x10,%esp
   11bb3:	eb fe                	jmp    11bb3 <page_fault_routine+0x13>
   11bb5:	8d 74 26 00          	lea    0x0(%esi,%eiz,1),%esi
   11bb9:	8d bc 27 00 00 00 00 	lea    0x0(%edi,%eiz,1),%edi

00011bc0 <intel_reserved_routine>:
   11bc0:	55                   	push   %ebp
   11bc1:	89 e5                	mov    %esp,%ebp
   11bc3:	83 ec 14             	sub    $0x14,%esp
   11bc6:	68 94 21 01 00       	push   $0x12194
   11bcb:	e8 f0 e8 ff ff       	call   104c0 <printk>
   11bd0:	83 c4 10             	add    $0x10,%esp
   11bd3:	eb fe                	jmp    11bd3 <intel_reserved_routine+0x13>
   11bd5:	8d 74 26 00          	lea    0x0(%esi,%eiz,1),%esi
   11bd9:	8d bc 27 00 00 00 00 	lea    0x0(%edi,%eiz,1),%edi

00011be0 <floating_point_error_routine>:
   11be0:	55                   	push   %ebp
   11be1:	89 e5                	mov    %esp,%ebp
   11be3:	83 ec 14             	sub    $0x14,%esp
   11be6:	68 ab 21 01 00       	push   $0x121ab
   11beb:	e8 d0 e8 ff ff       	call   104c0 <printk>
   11bf0:	83 c4 10             	add    $0x10,%esp
   11bf3:	eb fe                	jmp    11bf3 <floating_point_error_routine+0x13>
   11bf5:	8d 74 26 00          	lea    0x0(%esi,%eiz,1),%esi
   11bf9:	8d bc 27 00 00 00 00 	lea    0x0(%edi,%eiz,1),%edi

00011c00 <alignment_check_routine>:
   11c00:	55                   	push   %ebp
   11c01:	89 e5                	mov    %esp,%ebp
   11c03:	83 ec 14             	sub    $0x14,%esp
   11c06:	68 c2 21 01 00       	push   $0x121c2
   11c0b:	e8 b0 e8 ff ff       	call   104c0 <printk>
   11c10:	83 c4 10             	add    $0x10,%esp
   11c13:	eb fe                	jmp    11c13 <alignment_check_routine+0x13>
   11c15:	8d 74 26 00          	lea    0x0(%esi,%eiz,1),%esi
   11c19:	8d bc 27 00 00 00 00 	lea    0x0(%edi,%eiz,1),%edi

00011c20 <set_handlers>:
   11c20:	55                   	push   %ebp
   11c21:	89 e5                	mov    %esp,%ebp
   11c23:	83 ec 0c             	sub    $0xc,%esp
   11c26:	6a 00                	push   $0x0
   11c28:	68 5a 1d 01 00       	push   $0x11d5a
   11c2d:	6a 00                	push   $0x0
   11c2f:	e8 bc e4 ff ff       	call   100f0 <setInterruptHandler>
   11c34:	83 c4 0c             	add    $0xc,%esp
   11c37:	6a 00                	push   $0x0
   11c39:	68 83 1d 01 00       	push   $0x11d83
   11c3e:	6a 01                	push   $0x1
   11c40:	e8 ab e4 ff ff       	call   100f0 <setInterruptHandler>
   11c45:	83 c4 0c             	add    $0xc,%esp
   11c48:	6a 00                	push   $0x0
   11c4a:	68 ac 1d 01 00       	push   $0x11dac
   11c4f:	6a 02                	push   $0x2
   11c51:	e8 9a e4 ff ff       	call   100f0 <setInterruptHandler>
   11c56:	83 c4 0c             	add    $0xc,%esp
   11c59:	6a 00                	push   $0x0
   11c5b:	68 d5 1d 01 00       	push   $0x11dd5
   11c60:	6a 03                	push   $0x3
   11c62:	e8 89 e4 ff ff       	call   100f0 <setInterruptHandler>
   11c67:	83 c4 0c             	add    $0xc,%esp
   11c6a:	6a 00                	push   $0x0
   11c6c:	68 fe 1d 01 00       	push   $0x11dfe
   11c71:	6a 04                	push   $0x4
   11c73:	e8 78 e4 ff ff       	call   100f0 <setInterruptHandler>
   11c78:	83 c4 0c             	add    $0xc,%esp
   11c7b:	6a 00                	push   $0x0
   11c7d:	68 27 1e 01 00       	push   $0x11e27
   11c82:	6a 05                	push   $0x5
   11c84:	e8 67 e4 ff ff       	call   100f0 <setInterruptHandler>
   11c89:	83 c4 0c             	add    $0xc,%esp
   11c8c:	6a 00                	push   $0x0
   11c8e:	68 50 1e 01 00       	push   $0x11e50
   11c93:	6a 06                	push   $0x6
   11c95:	e8 56 e4 ff ff       	call   100f0 <setInterruptHandler>
   11c9a:	83 c4 0c             	add    $0xc,%esp
   11c9d:	6a 00                	push   $0x0
   11c9f:	68 79 1e 01 00       	push   $0x11e79
   11ca4:	6a 07                	push   $0x7
   11ca6:	e8 45 e4 ff ff       	call   100f0 <setInterruptHandler>
   11cab:	83 c4 0c             	add    $0xc,%esp
   11cae:	6a 00                	push   $0x0
   11cb0:	68 a2 1e 01 00       	push   $0x11ea2
   11cb5:	6a 08                	push   $0x8
   11cb7:	e8 34 e4 ff ff       	call   100f0 <setInterruptHandler>
   11cbc:	83 c4 0c             	add    $0xc,%esp
   11cbf:	6a 00                	push   $0x0
   11cc1:	68 cb 1e 01 00       	push   $0x11ecb
   11cc6:	6a 09                	push   $0x9
   11cc8:	e8 23 e4 ff ff       	call   100f0 <setInterruptHandler>
   11ccd:	83 c4 0c             	add    $0xc,%esp
   11cd0:	6a 00                	push   $0x0
   11cd2:	68 f4 1e 01 00       	push   $0x11ef4
   11cd7:	6a 0a                	push   $0xa
   11cd9:	e8 12 e4 ff ff       	call   100f0 <setInterruptHandler>
   11cde:	83 c4 0c             	add    $0xc,%esp
   11ce1:	6a 00                	push   $0x0
   11ce3:	68 1d 1f 01 00       	push   $0x11f1d
   11ce8:	6a 0b                	push   $0xb
   11cea:	e8 01 e4 ff ff       	call   100f0 <setInterruptHandler>
   11cef:	83 c4 0c             	add    $0xc,%esp
   11cf2:	6a 00                	push   $0x0
   11cf4:	68 46 1f 01 00       	push   $0x11f46
   11cf9:	6a 0c                	push   $0xc
   11cfb:	e8 f0 e3 ff ff       	call   100f0 <setInterruptHandler>
   11d00:	83 c4 0c             	add    $0xc,%esp
   11d03:	6a 00                	push   $0x0
   11d05:	68 6f 1f 01 00       	push   $0x11f6f
   11d0a:	6a 0d                	push   $0xd
   11d0c:	e8 df e3 ff ff       	call   100f0 <setInterruptHandler>
   11d11:	83 c4 0c             	add    $0xc,%esp
   11d14:	6a 00                	push   $0x0
   11d16:	68 98 1f 01 00       	push   $0x11f98
   11d1b:	6a 0e                	push   $0xe
   11d1d:	e8 ce e3 ff ff       	call   100f0 <setInterruptHandler>
   11d22:	83 c4 0c             	add    $0xc,%esp
   11d25:	6a 00                	push   $0x0
   11d27:	68 c1 1f 01 00       	push   $0x11fc1
   11d2c:	6a 0f                	push   $0xf
   11d2e:	e8 bd e3 ff ff       	call   100f0 <setInterruptHandler>
   11d33:	83 c4 0c             	add    $0xc,%esp
   11d36:	6a 00                	push   $0x0
   11d38:	68 ea 1f 01 00       	push   $0x11fea
   11d3d:	6a 10                	push   $0x10
   11d3f:	e8 ac e3 ff ff       	call   100f0 <setInterruptHandler>
   11d44:	83 c4 0c             	add    $0xc,%esp
   11d47:	6a 00                	push   $0x0
   11d49:	68 13 20 01 00       	push   $0x12013
   11d4e:	6a 11                	push   $0x11
   11d50:	e8 9b e3 ff ff       	call   100f0 <setInterruptHandler>
   11d55:	83 c4 10             	add    $0x10,%esp
   11d58:	c9                   	leave  
   11d59:	c3                   	ret    

00011d5a <divide_error_handler>:
   11d5a:	0f a8                	push   %gs
   11d5c:	0f a0                	push   %fs
   11d5e:	06                   	push   %es
   11d5f:	1e                   	push   %ds
   11d60:	50                   	push   %eax
   11d61:	55                   	push   %ebp
   11d62:	57                   	push   %edi
   11d63:	56                   	push   %esi
   11d64:	52                   	push   %edx
   11d65:	51                   	push   %ecx
   11d66:	53                   	push   %ebx
   11d67:	ba 18 00 00 00       	mov    $0x18,%edx
   11d6c:	8e da                	mov    %edx,%ds
   11d6e:	8e c2                	mov    %edx,%es
   11d70:	e8 6b fc ff ff       	call   119e0 <divide_error_routine>
   11d75:	5b                   	pop    %ebx
   11d76:	59                   	pop    %ecx
   11d77:	5a                   	pop    %edx
   11d78:	5e                   	pop    %esi
   11d79:	5f                   	pop    %edi
   11d7a:	5d                   	pop    %ebp
   11d7b:	58                   	pop    %eax
   11d7c:	1f                   	pop    %ds
   11d7d:	07                   	pop    %es
   11d7e:	0f a1                	pop    %fs
   11d80:	0f a9                	pop    %gs
   11d82:	cf                   	iret   

00011d83 <debug_handler>:
   11d83:	0f a8                	push   %gs
   11d85:	0f a0                	push   %fs
   11d87:	06                   	push   %es
   11d88:	1e                   	push   %ds
   11d89:	50                   	push   %eax
   11d8a:	55                   	push   %ebp
   11d8b:	57                   	push   %edi
   11d8c:	56                   	push   %esi
   11d8d:	52                   	push   %edx
   11d8e:	51                   	push   %ecx
   11d8f:	53                   	push   %ebx
   11d90:	ba 18 00 00 00       	mov    $0x18,%edx
   11d95:	8e da                	mov    %edx,%ds
   11d97:	8e c2                	mov    %edx,%es
   11d99:	e8 62 fc ff ff       	call   11a00 <debug_routine>
   11d9e:	5b                   	pop    %ebx
   11d9f:	59                   	pop    %ecx
   11da0:	5a                   	pop    %edx
   11da1:	5e                   	pop    %esi
   11da2:	5f                   	pop    %edi
   11da3:	5d                   	pop    %ebp
   11da4:	58                   	pop    %eax
   11da5:	1f                   	pop    %ds
   11da6:	07                   	pop    %es
   11da7:	0f a1                	pop    %fs
   11da9:	0f a9                	pop    %gs
   11dab:	cf                   	iret   

00011dac <nm1_handler>:
   11dac:	0f a8                	push   %gs
   11dae:	0f a0                	push   %fs
   11db0:	06                   	push   %es
   11db1:	1e                   	push   %ds
   11db2:	50                   	push   %eax
   11db3:	55                   	push   %ebp
   11db4:	57                   	push   %edi
   11db5:	56                   	push   %esi
   11db6:	52                   	push   %edx
   11db7:	51                   	push   %ecx
   11db8:	53                   	push   %ebx
   11db9:	ba 18 00 00 00       	mov    $0x18,%edx
   11dbe:	8e da                	mov    %edx,%ds
   11dc0:	8e c2                	mov    %edx,%es
   11dc2:	e8 59 fc ff ff       	call   11a20 <nm1_routine>
   11dc7:	5b                   	pop    %ebx
   11dc8:	59                   	pop    %ecx
   11dc9:	5a                   	pop    %edx
   11dca:	5e                   	pop    %esi
   11dcb:	5f                   	pop    %edi
   11dcc:	5d                   	pop    %ebp
   11dcd:	58                   	pop    %eax
   11dce:	1f                   	pop    %ds
   11dcf:	07                   	pop    %es
   11dd0:	0f a1                	pop    %fs
   11dd2:	0f a9                	pop    %gs
   11dd4:	cf                   	iret   

00011dd5 <breakpoint_handler>:
   11dd5:	0f a8                	push   %gs
   11dd7:	0f a0                	push   %fs
   11dd9:	06                   	push   %es
   11dda:	1e                   	push   %ds
   11ddb:	50                   	push   %eax
   11ddc:	55                   	push   %ebp
   11ddd:	57                   	push   %edi
   11dde:	56                   	push   %esi
   11ddf:	52                   	push   %edx
   11de0:	51                   	push   %ecx
   11de1:	53                   	push   %ebx
   11de2:	ba 18 00 00 00       	mov    $0x18,%edx
   11de7:	8e da                	mov    %edx,%ds
   11de9:	8e c2                	mov    %edx,%es
   11deb:	e8 50 fc ff ff       	call   11a40 <breakpoint_routine>
   11df0:	5b                   	pop    %ebx
   11df1:	59                   	pop    %ecx
   11df2:	5a                   	pop    %edx
   11df3:	5e                   	pop    %esi
   11df4:	5f                   	pop    %edi
   11df5:	5d                   	pop    %ebp
   11df6:	58                   	pop    %eax
   11df7:	1f                   	pop    %ds
   11df8:	07                   	pop    %es
   11df9:	0f a1                	pop    %fs
   11dfb:	0f a9                	pop    %gs
   11dfd:	cf                   	iret   

00011dfe <overflow_handler>:
   11dfe:	0f a8                	push   %gs
   11e00:	0f a0                	push   %fs
   11e02:	06                   	push   %es
   11e03:	1e                   	push   %ds
   11e04:	50                   	push   %eax
   11e05:	55                   	push   %ebp
   11e06:	57                   	push   %edi
   11e07:	56                   	push   %esi
   11e08:	52                   	push   %edx
   11e09:	51                   	push   %ecx
   11e0a:	53                   	push   %ebx
   11e0b:	ba 18 00 00 00       	mov    $0x18,%edx
   11e10:	8e da                	mov    %edx,%ds
   11e12:	8e c2                	mov    %edx,%es
   11e14:	e8 47 fc ff ff       	call   11a60 <overflow_routine>
   11e19:	5b                   	pop    %ebx
   11e1a:	59                   	pop    %ecx
   11e1b:	5a                   	pop    %edx
   11e1c:	5e                   	pop    %esi
   11e1d:	5f                   	pop    %edi
   11e1e:	5d                   	pop    %ebp
   11e1f:	58                   	pop    %eax
   11e20:	1f                   	pop    %ds
   11e21:	07                   	pop    %es
   11e22:	0f a1                	pop    %fs
   11e24:	0f a9                	pop    %gs
   11e26:	cf                   	iret   

00011e27 <bounds_check_handler>:
   11e27:	0f a8                	push   %gs
   11e29:	0f a0                	push   %fs
   11e2b:	06                   	push   %es
   11e2c:	1e                   	push   %ds
   11e2d:	50                   	push   %eax
   11e2e:	55                   	push   %ebp
   11e2f:	57                   	push   %edi
   11e30:	56                   	push   %esi
   11e31:	52                   	push   %edx
   11e32:	51                   	push   %ecx
   11e33:	53                   	push   %ebx
   11e34:	ba 18 00 00 00       	mov    $0x18,%edx
   11e39:	8e da                	mov    %edx,%ds
   11e3b:	8e c2                	mov    %edx,%es
   11e3d:	e8 3e fc ff ff       	call   11a80 <bounds_check_routine>
   11e42:	5b                   	pop    %ebx
   11e43:	59                   	pop    %ecx
   11e44:	5a                   	pop    %edx
   11e45:	5e                   	pop    %esi
   11e46:	5f                   	pop    %edi
   11e47:	5d                   	pop    %ebp
   11e48:	58                   	pop    %eax
   11e49:	1f                   	pop    %ds
   11e4a:	07                   	pop    %es
   11e4b:	0f a1                	pop    %fs
   11e4d:	0f a9                	pop    %gs
   11e4f:	cf                   	iret   

00011e50 <invalid_opcode_handler>:
   11e50:	0f a8                	push   %gs
   11e52:	0f a0                	push   %fs
   11e54:	06                   	push   %es
   11e55:	1e                   	push   %ds
   11e56:	50                   	push   %eax
   11e57:	55                   	push   %ebp
   11e58:	57                   	push   %edi
   11e59:	56                   	push   %esi
   11e5a:	52                   	push   %edx
   11e5b:	51                   	push   %ecx
   11e5c:	53                   	push   %ebx
   11e5d:	ba 18 00 00 00       	mov    $0x18,%edx
   11e62:	8e da                	mov    %edx,%ds
   11e64:	8e c2                	mov    %edx,%es
   11e66:	e8 35 fc ff ff       	call   11aa0 <invalid_opcode_routine>
   11e6b:	5b                   	pop    %ebx
   11e6c:	59                   	pop    %ecx
   11e6d:	5a                   	pop    %edx
   11e6e:	5e                   	pop    %esi
   11e6f:	5f                   	pop    %edi
   11e70:	5d                   	pop    %ebp
   11e71:	58                   	pop    %eax
   11e72:	1f                   	pop    %ds
   11e73:	07                   	pop    %es
   11e74:	0f a1                	pop    %fs
   11e76:	0f a9                	pop    %gs
   11e78:	cf                   	iret   

00011e79 <device_not_available_handler>:
   11e79:	0f a8                	push   %gs
   11e7b:	0f a0                	push   %fs
   11e7d:	06                   	push   %es
   11e7e:	1e                   	push   %ds
   11e7f:	50                   	push   %eax
   11e80:	55                   	push   %ebp
   11e81:	57                   	push   %edi
   11e82:	56                   	push   %esi
   11e83:	52                   	push   %edx
   11e84:	51                   	push   %ecx
   11e85:	53                   	push   %ebx
   11e86:	ba 18 00 00 00       	mov    $0x18,%edx
   11e8b:	8e da                	mov    %edx,%ds
   11e8d:	8e c2                	mov    %edx,%es
   11e8f:	e8 2c fc ff ff       	call   11ac0 <device_not_available_routine>
   11e94:	5b                   	pop    %ebx
   11e95:	59                   	pop    %ecx
   11e96:	5a                   	pop    %edx
   11e97:	5e                   	pop    %esi
   11e98:	5f                   	pop    %edi
   11e99:	5d                   	pop    %ebp
   11e9a:	58                   	pop    %eax
   11e9b:	1f                   	pop    %ds
   11e9c:	07                   	pop    %es
   11e9d:	0f a1                	pop    %fs
   11e9f:	0f a9                	pop    %gs
   11ea1:	cf                   	iret   

00011ea2 <double_fault_handler>:
   11ea2:	0f a8                	push   %gs
   11ea4:	0f a0                	push   %fs
   11ea6:	06                   	push   %es
   11ea7:	1e                   	push   %ds
   11ea8:	50                   	push   %eax
   11ea9:	55                   	push   %ebp
   11eaa:	57                   	push   %edi
   11eab:	56                   	push   %esi
   11eac:	52                   	push   %edx
   11ead:	51                   	push   %ecx
   11eae:	53                   	push   %ebx
   11eaf:	ba 18 00 00 00       	mov    $0x18,%edx
   11eb4:	8e da                	mov    %edx,%ds
   11eb6:	8e c2                	mov    %edx,%es
   11eb8:	e8 23 fc ff ff       	call   11ae0 <double_fault_routine>
   11ebd:	5b                   	pop    %ebx
   11ebe:	59                   	pop    %ecx
   11ebf:	5a                   	pop    %edx
   11ec0:	5e                   	pop    %esi
   11ec1:	5f                   	pop    %edi
   11ec2:	5d                   	pop    %ebp
   11ec3:	58                   	pop    %eax
   11ec4:	1f                   	pop    %ds
   11ec5:	07                   	pop    %es
   11ec6:	0f a1                	pop    %fs
   11ec8:	0f a9                	pop    %gs
   11eca:	cf                   	iret   

00011ecb <coprocessor_segment_overrun_handler>:
   11ecb:	0f a8                	push   %gs
   11ecd:	0f a0                	push   %fs
   11ecf:	06                   	push   %es
   11ed0:	1e                   	push   %ds
   11ed1:	50                   	push   %eax
   11ed2:	55                   	push   %ebp
   11ed3:	57                   	push   %edi
   11ed4:	56                   	push   %esi
   11ed5:	52                   	push   %edx
   11ed6:	51                   	push   %ecx
   11ed7:	53                   	push   %ebx
   11ed8:	ba 18 00 00 00       	mov    $0x18,%edx
   11edd:	8e da                	mov    %edx,%ds
   11edf:	8e c2                	mov    %edx,%es
   11ee1:	e8 1a fc ff ff       	call   11b00 <coprocessor_segment_overrun_routine>
   11ee6:	5b                   	pop    %ebx
   11ee7:	59                   	pop    %ecx
   11ee8:	5a                   	pop    %edx
   11ee9:	5e                   	pop    %esi
   11eea:	5f                   	pop    %edi
   11eeb:	5d                   	pop    %ebp
   11eec:	58                   	pop    %eax
   11eed:	1f                   	pop    %ds
   11eee:	07                   	pop    %es
   11eef:	0f a1                	pop    %fs
   11ef1:	0f a9                	pop    %gs
   11ef3:	cf                   	iret   

00011ef4 <invalid_tss_handler>:
   11ef4:	0f a8                	push   %gs
   11ef6:	0f a0                	push   %fs
   11ef8:	06                   	push   %es
   11ef9:	1e                   	push   %ds
   11efa:	50                   	push   %eax
   11efb:	55                   	push   %ebp
   11efc:	57                   	push   %edi
   11efd:	56                   	push   %esi
   11efe:	52                   	push   %edx
   11eff:	51                   	push   %ecx
   11f00:	53                   	push   %ebx
   11f01:	ba 18 00 00 00       	mov    $0x18,%edx
   11f06:	8e da                	mov    %edx,%ds
   11f08:	8e c2                	mov    %edx,%es
   11f0a:	e8 11 fc ff ff       	call   11b20 <invalid_tss_routine>
   11f0f:	5b                   	pop    %ebx
   11f10:	59                   	pop    %ecx
   11f11:	5a                   	pop    %edx
   11f12:	5e                   	pop    %esi
   11f13:	5f                   	pop    %edi
   11f14:	5d                   	pop    %ebp
   11f15:	58                   	pop    %eax
   11f16:	1f                   	pop    %ds
   11f17:	07                   	pop    %es
   11f18:	0f a1                	pop    %fs
   11f1a:	0f a9                	pop    %gs
   11f1c:	cf                   	iret   

00011f1d <segment_not_present_handler>:
   11f1d:	0f a8                	push   %gs
   11f1f:	0f a0                	push   %fs
   11f21:	06                   	push   %es
   11f22:	1e                   	push   %ds
   11f23:	50                   	push   %eax
   11f24:	55                   	push   %ebp
   11f25:	57                   	push   %edi
   11f26:	56                   	push   %esi
   11f27:	52                   	push   %edx
   11f28:	51                   	push   %ecx
   11f29:	53                   	push   %ebx
   11f2a:	ba 18 00 00 00       	mov    $0x18,%edx
   11f2f:	8e da                	mov    %edx,%ds
   11f31:	8e c2                	mov    %edx,%es
   11f33:	e8 08 fc ff ff       	call   11b40 <segment_not_present_routine>
   11f38:	5b                   	pop    %ebx
   11f39:	59                   	pop    %ecx
   11f3a:	5a                   	pop    %edx
   11f3b:	5e                   	pop    %esi
   11f3c:	5f                   	pop    %edi
   11f3d:	5d                   	pop    %ebp
   11f3e:	58                   	pop    %eax
   11f3f:	1f                   	pop    %ds
   11f40:	07                   	pop    %es
   11f41:	0f a1                	pop    %fs
   11f43:	0f a9                	pop    %gs
   11f45:	cf                   	iret   

00011f46 <stack_exception_handler>:
   11f46:	0f a8                	push   %gs
   11f48:	0f a0                	push   %fs
   11f4a:	06                   	push   %es
   11f4b:	1e                   	push   %ds
   11f4c:	50                   	push   %eax
   11f4d:	55                   	push   %ebp
   11f4e:	57                   	push   %edi
   11f4f:	56                   	push   %esi
   11f50:	52                   	push   %edx
   11f51:	51                   	push   %ecx
   11f52:	53                   	push   %ebx
   11f53:	ba 18 00 00 00       	mov    $0x18,%edx
   11f58:	8e da                	mov    %edx,%ds
   11f5a:	8e c2                	mov    %edx,%es
   11f5c:	e8 ff fb ff ff       	call   11b60 <stack_exception_routine>
   11f61:	5b                   	pop    %ebx
   11f62:	59                   	pop    %ecx
   11f63:	5a                   	pop    %edx
   11f64:	5e                   	pop    %esi
   11f65:	5f                   	pop    %edi
   11f66:	5d                   	pop    %ebp
   11f67:	58                   	pop    %eax
   11f68:	1f                   	pop    %ds
   11f69:	07                   	pop    %es
   11f6a:	0f a1                	pop    %fs
   11f6c:	0f a9                	pop    %gs
   11f6e:	cf                   	iret   

00011f6f <general_protection_handler>:
   11f6f:	0f a8                	push   %gs
   11f71:	0f a0                	push   %fs
   11f73:	06                   	push   %es
   11f74:	1e                   	push   %ds
   11f75:	50                   	push   %eax
   11f76:	55                   	push   %ebp
   11f77:	57                   	push   %edi
   11f78:	56                   	push   %esi
   11f79:	52                   	push   %edx
   11f7a:	51                   	push   %ecx
   11f7b:	53                   	push   %ebx
   11f7c:	ba 18 00 00 00       	mov    $0x18,%edx
   11f81:	8e da                	mov    %edx,%ds
   11f83:	8e c2                	mov    %edx,%es
   11f85:	e8 f6 fb ff ff       	call   11b80 <general_protection_routine>
   11f8a:	5b                   	pop    %ebx
   11f8b:	59                   	pop    %ecx
   11f8c:	5a                   	pop    %edx
   11f8d:	5e                   	pop    %esi
   11f8e:	5f                   	pop    %edi
   11f8f:	5d                   	pop    %ebp
   11f90:	58                   	pop    %eax
   11f91:	1f                   	pop    %ds
   11f92:	07                   	pop    %es
   11f93:	0f a1                	pop    %fs
   11f95:	0f a9                	pop    %gs
   11f97:	cf                   	iret   

00011f98 <page_fault_handler>:
   11f98:	0f a8                	push   %gs
   11f9a:	0f a0                	push   %fs
   11f9c:	06                   	push   %es
   11f9d:	1e                   	push   %ds
   11f9e:	50                   	push   %eax
   11f9f:	55                   	push   %ebp
   11fa0:	57                   	push   %edi
   11fa1:	56                   	push   %esi
   11fa2:	52                   	push   %edx
   11fa3:	51                   	push   %ecx
   11fa4:	53                   	push   %ebx
   11fa5:	ba 18 00 00 00       	mov    $0x18,%edx
   11faa:	8e da                	mov    %edx,%ds
   11fac:	8e c2                	mov    %edx,%es
   11fae:	e8 ed fb ff ff       	call   11ba0 <page_fault_routine>
   11fb3:	5b                   	pop    %ebx
   11fb4:	59                   	pop    %ecx
   11fb5:	5a                   	pop    %edx
   11fb6:	5e                   	pop    %esi
   11fb7:	5f                   	pop    %edi
   11fb8:	5d                   	pop    %ebp
   11fb9:	58                   	pop    %eax
   11fba:	1f                   	pop    %ds
   11fbb:	07                   	pop    %es
   11fbc:	0f a1                	pop    %fs
   11fbe:	0f a9                	pop    %gs
   11fc0:	cf                   	iret   

00011fc1 <intel_reserved_handler>:
   11fc1:	0f a8                	push   %gs
   11fc3:	0f a0                	push   %fs
   11fc5:	06                   	push   %es
   11fc6:	1e                   	push   %ds
   11fc7:	50                   	push   %eax
   11fc8:	55                   	push   %ebp
   11fc9:	57                   	push   %edi
   11fca:	56                   	push   %esi
   11fcb:	52                   	push   %edx
   11fcc:	51                   	push   %ecx
   11fcd:	53                   	push   %ebx
   11fce:	ba 18 00 00 00       	mov    $0x18,%edx
   11fd3:	8e da                	mov    %edx,%ds
   11fd5:	8e c2                	mov    %edx,%es
   11fd7:	e8 e4 fb ff ff       	call   11bc0 <intel_reserved_routine>
   11fdc:	5b                   	pop    %ebx
   11fdd:	59                   	pop    %ecx
   11fde:	5a                   	pop    %edx
   11fdf:	5e                   	pop    %esi
   11fe0:	5f                   	pop    %edi
   11fe1:	5d                   	pop    %ebp
   11fe2:	58                   	pop    %eax
   11fe3:	1f                   	pop    %ds
   11fe4:	07                   	pop    %es
   11fe5:	0f a1                	pop    %fs
   11fe7:	0f a9                	pop    %gs
   11fe9:	cf                   	iret   

00011fea <floating_point_error_handler>:
   11fea:	0f a8                	push   %gs
   11fec:	0f a0                	push   %fs
   11fee:	06                   	push   %es
   11fef:	1e                   	push   %ds
   11ff0:	50                   	push   %eax
   11ff1:	55                   	push   %ebp
   11ff2:	57                   	push   %edi
   11ff3:	56                   	push   %esi
   11ff4:	52                   	push   %edx
   11ff5:	51                   	push   %ecx
   11ff6:	53                   	push   %ebx
   11ff7:	ba 18 00 00 00       	mov    $0x18,%edx
   11ffc:	8e da                	mov    %edx,%ds
   11ffe:	8e c2                	mov    %edx,%es
   12000:	e8 db fb ff ff       	call   11be0 <floating_point_error_routine>
   12005:	5b                   	pop    %ebx
   12006:	59                   	pop    %ecx
   12007:	5a                   	pop    %edx
   12008:	5e                   	pop    %esi
   12009:	5f                   	pop    %edi
   1200a:	5d                   	pop    %ebp
   1200b:	58                   	pop    %eax
   1200c:	1f                   	pop    %ds
   1200d:	07                   	pop    %es
   1200e:	0f a1                	pop    %fs
   12010:	0f a9                	pop    %gs
   12012:	cf                   	iret   

00012013 <alignment_check_handler>:
   12013:	0f a8                	push   %gs
   12015:	0f a0                	push   %fs
   12017:	06                   	push   %es
   12018:	1e                   	push   %ds
   12019:	50                   	push   %eax
   1201a:	55                   	push   %ebp
   1201b:	57                   	push   %edi
   1201c:	56                   	push   %esi
   1201d:	52                   	push   %edx
   1201e:	51                   	push   %ecx
   1201f:	53                   	push   %ebx
   12020:	ba 18 00 00 00       	mov    $0x18,%edx
   12025:	8e da                	mov    %edx,%ds
   12027:	8e c2                	mov    %edx,%es
   12029:	e8 d2 fb ff ff       	call   11c00 <alignment_check_routine>
   1202e:	5b                   	pop    %ebx
   1202f:	59                   	pop    %ecx
   12030:	5a                   	pop    %edx
   12031:	5e                   	pop    %esi
   12032:	5f                   	pop    %edi
   12033:	5d                   	pop    %ebp
   12034:	58                   	pop    %eax
   12035:	1f                   	pop    %ds
   12036:	07                   	pop    %es
   12037:	0f a1                	pop    %fs
   12039:	0f a9                	pop    %gs
   1203b:	cf                   	iret   

Disassembly of section .text.__x86.get_pc_thunk.bx:

0001203c <__x86.get_pc_thunk.bx>:
   1203c:	8b 1c 24             	mov    (%esp),%ebx
   1203f:	c3                   	ret    

Disassembly of section .text.__x86.get_pc_thunk.dx:

00012040 <__x86.get_pc_thunk.dx>:
   12040:	8b 14 24             	mov    (%esp),%edx
   12043:	c3                   	ret    

Disassembly of section .text.__x86.get_pc_thunk.ax:

00012044 <__x86.get_pc_thunk.ax>:
   12044:	8b 04 24             	mov    (%esp),%eax
   12047:	c3                   	ret    

Disassembly of section .text.__x86.get_pc_thunk.cx:

00012048 <__x86.get_pc_thunk.cx>:
   12048:	8b 0c 24             	mov    (%esp),%ecx
   1204b:	c3                   	ret    

Disassembly of section .text.__x86.get_pc_thunk.di:

0001204c <__x86.get_pc_thunk.di>:
   1204c:	8b 3c 24             	mov    (%esp),%edi
   1204f:	c3                   	ret    
