
sys.o:     file format elf32-i386


Disassembly of section .group:

00000000 <.group>:
   0:	01 00                	add    %eax,(%eax)
   2:	00 00                	add    %al,(%eax)
   4:	07                   	pop    %es
   5:	00 00                	add    %al,(%eax)
	...

Disassembly of section .group:

00000000 <.group>:
   0:	01 00                	add    %eax,(%eax)
   2:	00 00                	add    %al,(%eax)
   4:	08 00                	or     %al,(%eax)
	...

Disassembly of section .text:

00000000 <ret_from_fork>:
   0:	55                   	push   %ebp
   1:	31 c0                	xor    %eax,%eax
   3:	89 e5                	mov    %esp,%ebp
   5:	5d                   	pop    %ebp
   6:	c3                   	ret    
   7:	89 f6                	mov    %esi,%esi
   9:	8d bc 27 00 00 00 00 	lea    0x0(%edi,%eiz,1),%edi

00000010 <check_fd>:
  10:	55                   	push   %ebp
  11:	89 e5                	mov    %esp,%ebp
  13:	83 7d 08 01          	cmpl   $0x1,0x8(%ebp)
  17:	75 17                	jne    30 <check_fd+0x20>
  19:	83 7d 0c 01          	cmpl   $0x1,0xc(%ebp)
  1d:	b8 f3 ff ff ff       	mov    $0xfffffff3,%eax
  22:	ba 00 00 00 00       	mov    $0x0,%edx
  27:	5d                   	pop    %ebp
  28:	0f 44 c2             	cmove  %edx,%eax
  2b:	c3                   	ret    
  2c:	8d 74 26 00          	lea    0x0(%esi,%eiz,1),%esi
  30:	b8 f7 ff ff ff       	mov    $0xfffffff7,%eax
  35:	5d                   	pop    %ebp
  36:	c3                   	ret    
  37:	89 f6                	mov    %esi,%esi
  39:	8d bc 27 00 00 00 00 	lea    0x0(%edi,%eiz,1),%edi

00000040 <sys_ni_syscall>:
  40:	55                   	push   %ebp
  41:	b8 da ff ff ff       	mov    $0xffffffda,%eax
  46:	89 e5                	mov    %esp,%ebp
  48:	5d                   	pop    %ebp
  49:	c3                   	ret    
  4a:	8d b6 00 00 00 00    	lea    0x0(%esi),%esi

00000050 <sys_getpid>:
  50:	55                   	push   %ebp
  51:	89 e5                	mov    %esp,%ebp
  53:	53                   	push   %ebx
  54:	e8 fc ff ff ff       	call   55 <sys_getpid+0x5>
  59:	81 c3 02 00 00 00    	add    $0x2,%ebx
  5f:	83 ec 04             	sub    $0x4,%esp
  62:	e8 fc ff ff ff       	call   63 <sys_getpid+0x13>
  67:	8b 00                	mov    (%eax),%eax
  69:	83 c4 04             	add    $0x4,%esp
  6c:	5b                   	pop    %ebx
  6d:	5d                   	pop    %ebp
  6e:	c3                   	ret    
  6f:	90                   	nop

00000070 <sys_fork>:
  70:	55                   	push   %ebp
  71:	89 e5                	mov    %esp,%ebp
  73:	57                   	push   %edi
  74:	56                   	push   %esi
  75:	53                   	push   %ebx
  76:	e8 fc ff ff ff       	call   77 <sys_fork+0x7>
  7b:	81 c3 02 00 00 00    	add    $0x2,%ebx
  81:	81 ec 48 10 00 00    	sub    $0x1048,%esp
  87:	8b b3 00 00 00 00    	mov    0x0(%ebx),%esi
  8d:	56                   	push   %esi
  8e:	e8 fc ff ff ff       	call   8f <sys_fork+0x1f>
  93:	83 c4 10             	add    $0x10,%esp
  96:	85 c0                	test   %eax,%eax
  98:	0f 85 d4 03 00 00    	jne    472 <sys_fork+0x402>
  9e:	8b 06                	mov    (%esi),%eax
  a0:	83 ec 0c             	sub    $0xc,%esp
  a3:	8b 38                	mov    (%eax),%edi
  a5:	89 85 c8 ef ff ff    	mov    %eax,-0x1038(%ebp)
  ab:	89 bd c0 ef ff ff    	mov    %edi,-0x1040(%ebp)
  b1:	8b 78 04             	mov    0x4(%eax),%edi
  b4:	50                   	push   %eax
  b5:	89 bd bc ef ff ff    	mov    %edi,-0x1044(%ebp)
  bb:	e8 fc ff ff ff       	call   bc <sys_fork+0x4c>
  c0:	89 c6                	mov    %eax,%esi
  c2:	89 85 c4 ef ff ff    	mov    %eax,-0x103c(%ebp)
  c8:	e8 fc ff ff ff       	call   c9 <sys_fork+0x59>
  cd:	83 c4 0c             	add    $0xc,%esp
  d0:	68 00 10 00 00       	push   $0x1000
  d5:	56                   	push   %esi
  d6:	50                   	push   %eax
  d7:	e8 fc ff ff ff       	call   d8 <sys_fork+0x68>
  dc:	89 34 24             	mov    %esi,(%esp)
  df:	e8 fc ff ff ff       	call   e0 <sys_fork+0x70>
  e4:	e8 fc ff ff ff       	call   e5 <sys_fork+0x75>
  e9:	89 04 24             	mov    %eax,(%esp)
  ec:	e8 fc ff ff ff       	call   ed <sys_fork+0x7d>
  f1:	89 34 24             	mov    %esi,(%esp)
  f4:	89 c7                	mov    %eax,%edi
  f6:	89 85 d0 ef ff ff    	mov    %eax,-0x1030(%ebp)
  fc:	e8 fc ff ff ff       	call   fd <sys_fork+0x8d>
 101:	89 85 dc ef ff ff    	mov    %eax,-0x1024(%ebp)
 107:	8d 85 e8 ef ff ff    	lea    -0x1018(%ebp),%eax
 10d:	83 c4 10             	add    $0x10,%esp
 110:	31 f6                	xor    %esi,%esi
 112:	ba ff ff ff ff       	mov    $0xffffffff,%edx
 117:	c7 85 e0 ef ff ff ff 	movl   $0xffffffff,-0x1020(%ebp)
 11e:	ff ff ff 
 121:	c7 85 d4 ef ff ff ff 	movl   $0xffffffff,-0x102c(%ebp)
 128:	ff ff ff 
 12b:	89 85 e4 ef ff ff    	mov    %eax,-0x101c(%ebp)
 131:	eb 6e                	jmp    1a1 <sys_fork+0x131>
 133:	90                   	nop
 134:	8d 74 26 00          	lea    0x0(%esi,%eiz,1),%esi
 138:	83 e0 06             	and    $0x6,%eax
 13b:	3c 06                	cmp    $0x6,%al
 13d:	0f 84 bd 01 00 00    	je     300 <sys_fork+0x290>
 143:	8b 85 e4 ef ff ff    	mov    -0x101c(%ebp),%eax
 149:	c7 04 b0 ff ff ff ff 	movl   $0xffffffff,(%eax,%esi,4)
 150:	8b 85 dc ef ff ff    	mov    -0x1024(%ebp),%eax
 156:	8d 14 b0             	lea    (%eax,%esi,4),%edx
 159:	0f b6 02             	movzbl (%edx),%eax
 15c:	83 c8 01             	or     $0x1,%eax
 15f:	88 02                	mov    %al,(%edx)
 161:	0f b6 0f             	movzbl (%edi),%ecx
 164:	83 e0 fd             	and    $0xfffffffd,%eax
 167:	83 e1 02             	and    $0x2,%ecx
 16a:	09 c8                	or     %ecx,%eax
 16c:	88 02                	mov    %al,(%edx)
 16e:	0f b6 0f             	movzbl (%edi),%ecx
 171:	83 e0 fb             	and    $0xfffffffb,%eax
 174:	83 e1 04             	and    $0x4,%ecx
 177:	09 c8                	or     %ecx,%eax
 179:	88 02                	mov    %al,(%edx)
 17b:	8b 02                	mov    (%edx),%eax
 17d:	8b 0f                	mov    (%edi),%ecx
 17f:	25 ff 0f 00 00       	and    $0xfff,%eax
 184:	81 e1 00 f0 ff ff    	and    $0xfffff000,%ecx
 18a:	09 c8                	or     %ecx,%eax
 18c:	89 02                	mov    %eax,(%edx)
 18e:	ba ff ff ff ff       	mov    $0xffffffff,%edx
 193:	83 c6 01             	add    $0x1,%esi
 196:	83 c7 04             	add    $0x4,%edi
 199:	81 fe 00 04 00 00    	cmp    $0x400,%esi
 19f:	74 43                	je     1e4 <sys_fork+0x174>
 1a1:	0f b6 07             	movzbl (%edi),%eax
 1a4:	a8 01                	test   $0x1,%al
 1a6:	75 90                	jne    138 <sys_fork+0xc8>
 1a8:	8b 85 e4 ef ff ff    	mov    -0x101c(%ebp),%eax
 1ae:	83 fa ff             	cmp    $0xffffffff,%edx
 1b1:	c7 04 b0 ff ff ff ff 	movl   $0xffffffff,(%eax,%esi,4)
 1b8:	0f 84 32 01 00 00    	je     2f0 <sys_fork+0x280>
 1be:	89 f0                	mov    %esi,%eax
 1c0:	29 d0                	sub    %edx,%eax
 1c2:	3b 85 e0 ef ff ff    	cmp    -0x1020(%ebp),%eax
 1c8:	7e c9                	jle    193 <sys_fork+0x123>
 1ca:	83 c6 01             	add    $0x1,%esi
 1cd:	83 c7 04             	add    $0x4,%edi
 1d0:	89 85 e0 ef ff ff    	mov    %eax,-0x1020(%ebp)
 1d6:	81 fe 00 04 00 00    	cmp    $0x400,%esi
 1dc:	89 95 d4 ef ff ff    	mov    %edx,-0x102c(%ebp)
 1e2:	75 bd                	jne    1a1 <sys_fork+0x131>
 1e4:	8b bd d4 ef ff ff    	mov    -0x102c(%ebp),%edi
 1ea:	8b 8d e0 ef ff ff    	mov    -0x1020(%ebp),%ecx
 1f0:	31 c0                	xor    %eax,%eax
 1f2:	31 f6                	xor    %esi,%esi
 1f4:	8d 7c 0f 01          	lea    0x1(%edi,%ecx,1),%edi
 1f8:	89 bd cc ef ff ff    	mov    %edi,-0x1034(%ebp)
 1fe:	eb 5d                	jmp    25d <sys_fork+0x1ed>
 200:	8b 8d d4 ef ff ff    	mov    -0x102c(%ebp),%ecx
 206:	8d 14 01             	lea    (%ecx,%eax,1),%edx
 209:	83 c0 01             	add    $0x1,%eax
 20c:	83 ec 04             	sub    $0x4,%esp
 20f:	89 85 d8 ef ff ff    	mov    %eax,-0x1028(%ebp)
 215:	89 95 dc ef ff ff    	mov    %edx,-0x1024(%ebp)
 21b:	57                   	push   %edi
 21c:	52                   	push   %edx
 21d:	ff b5 d0 ef ff ff    	pushl  -0x1030(%ebp)
 223:	e8 fc ff ff ff       	call   224 <sys_fork+0x1b4>
 228:	8b 95 dc ef ff ff    	mov    -0x1024(%ebp),%edx
 22e:	83 c4 0c             	add    $0xc,%esp
 231:	68 00 10 00 00       	push   $0x1000
 236:	c1 e2 0c             	shl    $0xc,%edx
 239:	52                   	push   %edx
 23a:	89 f2                	mov    %esi,%edx
 23c:	c1 e2 0c             	shl    $0xc,%edx
 23f:	52                   	push   %edx
 240:	e8 fc ff ff ff       	call   241 <sys_fork+0x1d1>
 245:	8b 85 d8 ef ff ff    	mov    -0x1028(%ebp),%eax
 24b:	83 c4 10             	add    $0x10,%esp
 24e:	83 c6 01             	add    $0x1,%esi
 251:	81 fe 00 04 00 00    	cmp    $0x400,%esi
 257:	0f 84 e3 00 00 00    	je     340 <sys_fork+0x2d0>
 25d:	8b 8d e4 ef ff ff    	mov    -0x101c(%ebp),%ecx
 263:	8b 3c b1             	mov    (%ecx,%esi,4),%edi
 266:	83 ff ff             	cmp    $0xffffffff,%edi
 269:	74 e3                	je     24e <sys_fork+0x1de>
 26b:	8b 8d e0 ef ff ff    	mov    -0x1020(%ebp),%ecx
 271:	8d 51 01             	lea    0x1(%ecx),%edx
 274:	39 c2                	cmp    %eax,%edx
 276:	75 88                	jne    200 <sys_fork+0x190>
 278:	83 bd e0 ef ff ff ff 	cmpl   $0xffffffff,-0x1020(%ebp)
 27f:	74 43                	je     2c4 <sys_fork+0x254>
 281:	8b 85 d4 ef ff ff    	mov    -0x102c(%ebp),%eax
 287:	89 bd dc ef ff ff    	mov    %edi,-0x1024(%ebp)
 28d:	8b bd d0 ef ff ff    	mov    -0x1030(%ebp),%edi
 293:	89 b5 d8 ef ff ff    	mov    %esi,-0x1028(%ebp)
 299:	89 c6                	mov    %eax,%esi
 29b:	90                   	nop
 29c:	8d 74 26 00          	lea    0x0(%esi,%eiz,1),%esi
 2a0:	83 ec 08             	sub    $0x8,%esp
 2a3:	56                   	push   %esi
 2a4:	57                   	push   %edi
 2a5:	83 c6 01             	add    $0x1,%esi
 2a8:	e8 fc ff ff ff       	call   2a9 <sys_fork+0x239>
 2ad:	83 c4 10             	add    $0x10,%esp
 2b0:	39 b5 cc ef ff ff    	cmp    %esi,-0x1034(%ebp)
 2b6:	75 e8                	jne    2a0 <sys_fork+0x230>
 2b8:	8b bd dc ef ff ff    	mov    -0x1024(%ebp),%edi
 2be:	8b b5 d8 ef ff ff    	mov    -0x1028(%ebp),%esi
 2c4:	e8 fc ff ff ff       	call   2c5 <sys_fork+0x255>
 2c9:	83 ec 0c             	sub    $0xc,%esp
 2cc:	50                   	push   %eax
 2cd:	e8 fc ff ff ff       	call   2ce <sys_fork+0x25e>
 2d2:	89 04 24             	mov    %eax,(%esp)
 2d5:	e8 fc ff ff ff       	call   2d6 <sys_fork+0x266>
 2da:	83 c4 10             	add    $0x10,%esp
 2dd:	8b 95 d4 ef ff ff    	mov    -0x102c(%ebp),%edx
 2e3:	b8 01 00 00 00       	mov    $0x1,%eax
 2e8:	e9 1f ff ff ff       	jmp    20c <sys_fork+0x19c>
 2ed:	8d 76 00             	lea    0x0(%esi),%esi
 2f0:	31 c0                	xor    %eax,%eax
 2f2:	89 f2                	mov    %esi,%edx
 2f4:	e9 c9 fe ff ff       	jmp    1c2 <sys_fork+0x152>
 2f9:	8d b4 26 00 00 00 00 	lea    0x0(%esi,%eiz,1),%esi
 300:	e8 fc ff ff ff       	call   301 <sys_fork+0x291>
 305:	8b 8d e4 ef ff ff    	mov    -0x101c(%ebp),%ecx
 30b:	83 f8 ff             	cmp    $0xffffffff,%eax
 30e:	89 04 b1             	mov    %eax,(%ecx,%esi,4)
 311:	0f 84 27 01 00 00    	je     43e <sys_fork+0x3ce>
 317:	8b 8d dc ef ff ff    	mov    -0x1024(%ebp),%ecx
 31d:	c1 e0 0c             	shl    $0xc,%eax
 320:	8d 0c b1             	lea    (%ecx,%esi,4),%ecx
 323:	80 09 07             	orb    $0x7,(%ecx)
 326:	8b 11                	mov    (%ecx),%edx
 328:	81 e2 ff 0f 00 00    	and    $0xfff,%edx
 32e:	09 d0                	or     %edx,%eax
 330:	ba ff ff ff ff       	mov    $0xffffffff,%edx
 335:	89 01                	mov    %eax,(%ecx)
 337:	e9 57 fe ff ff       	jmp    193 <sys_fork+0x123>
 33c:	8d 74 26 00          	lea    0x0(%esi,%eiz,1),%esi
 340:	83 e8 01             	sub    $0x1,%eax
 343:	78 34                	js     379 <sys_fork+0x309>
 345:	8b b5 d4 ef ff ff    	mov    -0x102c(%ebp),%esi
 34b:	8d 3c 06             	lea    (%esi,%eax,1),%edi
 34e:	83 ee 01             	sub    $0x1,%esi
 351:	89 f0                	mov    %esi,%eax
 353:	89 fe                	mov    %edi,%esi
 355:	89 c7                	mov    %eax,%edi
 357:	89 f6                	mov    %esi,%esi
 359:	8d bc 27 00 00 00 00 	lea    0x0(%edi,%eiz,1),%edi
 360:	83 ec 08             	sub    $0x8,%esp
 363:	56                   	push   %esi
 364:	ff b5 d0 ef ff ff    	pushl  -0x1030(%ebp)
 36a:	83 ee 01             	sub    $0x1,%esi
 36d:	e8 fc ff ff ff       	call   36e <sys_fork+0x2fe>
 372:	83 c4 10             	add    $0x10,%esp
 375:	39 fe                	cmp    %edi,%esi
 377:	75 e7                	jne    360 <sys_fork+0x2f0>
 379:	e8 fc ff ff ff       	call   37a <sys_fork+0x30a>
 37e:	83 ec 0c             	sub    $0xc,%esp
 381:	50                   	push   %eax
 382:	e8 fc ff ff ff       	call   383 <sys_fork+0x313>
 387:	89 04 24             	mov    %eax,(%esp)
 38a:	e8 fc ff ff ff       	call   38b <sys_fork+0x31b>
 38f:	8b 85 c8 ef ff ff    	mov    -0x1038(%ebp),%eax
 395:	8b bd c0 ef ff ff    	mov    -0x1040(%ebp),%edi
 39b:	89 38                	mov    %edi,(%eax)
 39d:	8b bd bc ef ff ff    	mov    -0x1044(%ebp),%edi
 3a3:	89 78 04             	mov    %edi,0x4(%eax)
 3a6:	89 04 24             	mov    %eax,(%esp)
 3a9:	e8 fc ff ff ff       	call   3aa <sys_fork+0x33a>
 3ae:	e8 fc ff ff ff       	call   3af <sys_fork+0x33f>
 3b3:	8b 30                	mov    (%eax),%esi
 3b5:	8b 83 00 00 00 00    	mov    0x0(%ebx),%eax
 3bb:	83 c4 10             	add    $0x10,%esp
 3be:	89 85 e4 ef ff ff    	mov    %eax,-0x101c(%ebp)
 3c4:	8d b8 00 a0 00 00    	lea    0xa000(%eax),%edi
 3ca:	81 c6 8e 00 00 00    	add    $0x8e,%esi
 3d0:	31 c0                	xor    %eax,%eax
 3d2:	8d b6 00 00 00 00    	lea    0x0(%esi),%esi
 3d8:	8b 95 e4 ef ff ff    	mov    -0x101c(%ebp),%edx
 3de:	83 c6 01             	add    $0x1,%esi
 3e1:	b9 01 00 00 00       	mov    $0x1,%ecx
 3e6:	8d 76 00             	lea    0x0(%esi),%esi
 3e9:	8d bc 27 00 00 00 00 	lea    0x0(%edi,%eiz,1),%edi
 3f0:	39 32                	cmp    %esi,(%edx)
 3f2:	0f 44 c8             	cmove  %eax,%ecx
 3f5:	81 c2 00 10 00 00    	add    $0x1000,%edx
 3fb:	39 fa                	cmp    %edi,%edx
 3fd:	75 f1                	jne    3f0 <sys_fork+0x380>
 3ff:	85 c9                	test   %ecx,%ecx
 401:	74 d5                	je     3d8 <sys_fork+0x368>
 403:	8b bd c4 ef ff ff    	mov    -0x103c(%ebp),%edi
 409:	8d 93 00 00 00 00    	lea    0x0(%ebx),%edx
 40f:	83 ec 08             	sub    $0x8,%esp
 412:	8b 47 10             	mov    0x10(%edi),%eax
 415:	89 37                	mov    %esi,(%edi)
 417:	83 e8 04             	sub    $0x4,%eax
 41a:	89 50 04             	mov    %edx,0x4(%eax)
 41d:	89 47 10             	mov    %eax,0x10(%edi)
 420:	ff b3 00 00 00 00    	pushl  0x0(%ebx)
 426:	ff b5 c8 ef ff ff    	pushl  -0x1038(%ebp)
 42c:	e8 fc ff ff ff       	call   42d <sys_fork+0x3bd>
 431:	83 c4 10             	add    $0x10,%esp
 434:	8d 65 f4             	lea    -0xc(%ebp),%esp
 437:	89 f0                	mov    %esi,%eax
 439:	5b                   	pop    %ebx
 43a:	5e                   	pop    %esi
 43b:	5f                   	pop    %edi
 43c:	5d                   	pop    %ebp
 43d:	c3                   	ret    
 43e:	89 cf                	mov    %ecx,%edi
 440:	8d 34 b1             	lea    (%ecx,%esi,4),%esi
 443:	eb 1a                	jmp    45f <sys_fork+0x3ef>
 445:	8d 76 00             	lea    0x0(%esi),%esi
 448:	8b 46 fc             	mov    -0x4(%esi),%eax
 44b:	83 f8 ff             	cmp    $0xffffffff,%eax
 44e:	74 0c                	je     45c <sys_fork+0x3ec>
 450:	83 ec 0c             	sub    $0xc,%esp
 453:	50                   	push   %eax
 454:	e8 fc ff ff ff       	call   455 <sys_fork+0x3e5>
 459:	83 c4 10             	add    $0x10,%esp
 45c:	83 ee 04             	sub    $0x4,%esi
 45f:	39 f7                	cmp    %esi,%edi
 461:	75 e5                	jne    448 <sys_fork+0x3d8>
 463:	8d 65 f4             	lea    -0xc(%ebp),%esp
 466:	be f4 ff ff ff       	mov    $0xfffffff4,%esi
 46b:	89 f0                	mov    %esi,%eax
 46d:	5b                   	pop    %ebx
 46e:	5e                   	pop    %esi
 46f:	5f                   	pop    %edi
 470:	5d                   	pop    %ebp
 471:	c3                   	ret    
 472:	be f5 ff ff ff       	mov    $0xfffffff5,%esi
 477:	eb bb                	jmp    434 <sys_fork+0x3c4>
 479:	8d b4 26 00 00 00 00 	lea    0x0(%esi,%eiz,1),%esi

00000480 <sys_exit>:
 480:	55                   	push   %ebp
 481:	89 e5                	mov    %esp,%ebp
 483:	5d                   	pop    %ebp
 484:	c3                   	ret    
 485:	8d 74 26 00          	lea    0x0(%esi,%eiz,1),%esi
 489:	8d bc 27 00 00 00 00 	lea    0x0(%edi,%eiz,1),%edi

00000490 <sys_write>:
 490:	55                   	push   %ebp
 491:	89 e5                	mov    %esp,%ebp
 493:	57                   	push   %edi
 494:	56                   	push   %esi
 495:	53                   	push   %ebx
 496:	e8 fc ff ff ff       	call   497 <sys_write+0x7>
 49b:	81 c3 02 00 00 00    	add    $0x2,%ebx
 4a1:	81 ec 1c 10 00 00    	sub    $0x101c,%esp
 4a7:	83 7d 08 01          	cmpl   $0x1,0x8(%ebp)
 4ab:	8b 4d 0c             	mov    0xc(%ebp),%ecx
 4ae:	8b 55 10             	mov    0x10(%ebp),%edx
 4b1:	0f 85 91 00 00 00    	jne    548 <sys_write+0xb8>
 4b7:	85 c9                	test   %ecx,%ecx
 4b9:	0f 84 a1 00 00 00    	je     560 <sys_write+0xd0>
 4bf:	85 d2                	test   %edx,%edx
 4c1:	0f 88 8d 00 00 00    	js     554 <sys_write+0xc4>
 4c7:	74 67                	je     530 <sys_write+0xa0>
 4c9:	8d bd e8 ef ff ff    	lea    -0x1018(%ebp),%edi
 4cf:	be 00 10 00 00       	mov    $0x1000,%esi
 4d4:	c7 85 dc ef ff ff 00 	movl   $0x0,-0x1024(%ebp)
 4db:	00 00 00 
 4de:	66 90                	xchg   %ax,%ax
 4e0:	39 d6                	cmp    %edx,%esi
 4e2:	89 8d e4 ef ff ff    	mov    %ecx,-0x101c(%ebp)
 4e8:	89 95 e0 ef ff ff    	mov    %edx,-0x1020(%ebp)
 4ee:	0f 4f f2             	cmovg  %edx,%esi
 4f1:	83 ec 04             	sub    $0x4,%esp
 4f4:	56                   	push   %esi
 4f5:	57                   	push   %edi
 4f6:	51                   	push   %ecx
 4f7:	e8 fc ff ff ff       	call   4f8 <sys_write+0x68>
 4fc:	58                   	pop    %eax
 4fd:	5a                   	pop    %edx
 4fe:	56                   	push   %esi
 4ff:	57                   	push   %edi
 500:	e8 fc ff ff ff       	call   501 <sys_write+0x71>
 505:	8b 95 e0 ef ff ff    	mov    -0x1020(%ebp),%edx
 50b:	8b 8d e4 ef ff ff    	mov    -0x101c(%ebp),%ecx
 511:	83 c4 10             	add    $0x10,%esp
 514:	01 b5 dc ef ff ff    	add    %esi,-0x1024(%ebp)
 51a:	29 f2                	sub    %esi,%edx
 51c:	01 f1                	add    %esi,%ecx
 51e:	85 d2                	test   %edx,%edx
 520:	7f be                	jg     4e0 <sys_write+0x50>
 522:	8b 85 dc ef ff ff    	mov    -0x1024(%ebp),%eax
 528:	8d 65 f4             	lea    -0xc(%ebp),%esp
 52b:	5b                   	pop    %ebx
 52c:	5e                   	pop    %esi
 52d:	5f                   	pop    %edi
 52e:	5d                   	pop    %ebp
 52f:	c3                   	ret    
 530:	c7 85 dc ef ff ff 00 	movl   $0x0,-0x1024(%ebp)
 537:	00 00 00 
 53a:	8b 85 dc ef ff ff    	mov    -0x1024(%ebp),%eax
 540:	8d 65 f4             	lea    -0xc(%ebp),%esp
 543:	5b                   	pop    %ebx
 544:	5e                   	pop    %esi
 545:	5f                   	pop    %edi
 546:	5d                   	pop    %ebp
 547:	c3                   	ret    
 548:	c7 85 dc ef ff ff f7 	movl   $0xfffffff7,-0x1024(%ebp)
 54f:	ff ff ff 
 552:	eb ce                	jmp    522 <sys_write+0x92>
 554:	c7 85 dc ef ff ff ea 	movl   $0xffffffea,-0x1024(%ebp)
 55b:	ff ff ff 
 55e:	eb c2                	jmp    522 <sys_write+0x92>
 560:	c7 85 dc ef ff ff f2 	movl   $0xfffffff2,-0x1024(%ebp)
 567:	ff ff ff 
 56a:	eb b6                	jmp    522 <sys_write+0x92>
 56c:	8d 74 26 00          	lea    0x0(%esi,%eiz,1),%esi

00000570 <sys_gettime>:
 570:	e8 fc ff ff ff       	call   571 <sys_gettime+0x1>
 575:	05 01 00 00 00       	add    $0x1,%eax
 57a:	55                   	push   %ebp
 57b:	8b 80 00 00 00 00    	mov    0x0(%eax),%eax
 581:	89 e5                	mov    %esp,%ebp
 583:	5d                   	pop    %ebp
 584:	8b 00                	mov    (%eax),%eax
 586:	c3                   	ret    

Disassembly of section .text.__x86.get_pc_thunk.ax:

00000000 <__x86.get_pc_thunk.ax>:
   0:	8b 04 24             	mov    (%esp),%eax
   3:	c3                   	ret    

Disassembly of section .text.__x86.get_pc_thunk.bx:

00000000 <__x86.get_pc_thunk.bx>:
   0:	8b 1c 24             	mov    (%esp),%ebx
   3:	c3                   	ret    

Disassembly of section .debug_info:

00000000 <.debug_info>:
   0:	e9 08 00 00 04       	jmp    400000d <sys_gettime+0x3fffa9d>
   5:	00 00                	add    %al,(%eax)
   7:	00 00                	add    %al,(%eax)
   9:	00 04 01             	add    %al,(%ecx,%eax,1)
   c:	29 01                	sub    %eax,(%ecx)
   e:	00 00                	add    %al,(%eax)
  10:	0c f8                	or     $0xf8,%al
  12:	02 00                	add    (%eax),%al
  14:	00 85 01 00 00 00    	add    %al,0x1(%ebp)
  1a:	00 00                	add    %al,(%eax)
  1c:	00 87 05 00 00 00    	add    %al,0x5(%edi)
  22:	00 00                	add    %al,(%eax)
  24:	00 02                	add    %al,(%edx)
  26:	e3 00                	jecxz  28 <.debug_info+0x28>
  28:	00 00                	add    %al,(%eax)
  2a:	02 0b                	add    (%ebx),%cl
  2c:	30 00                	xor    %al,(%eax)
  2e:	00 00                	add    %al,(%eax)
  30:	03 01                	add    (%ecx),%eax
  32:	08 64 02 00          	or     %ah,0x0(%edx,%eax,1)
  36:	00 02                	add    %al,(%edx)
  38:	18 01                	sbb    %al,(%ecx)
  3a:	00 00                	add    %al,(%eax)
  3c:	02 0c 42             	add    (%edx,%eax,2),%cl
  3f:	00 00                	add    %al,(%eax)
  41:	00 03                	add    %al,(%ebx)
  43:	02 07                	add    (%edi),%al
  45:	03 03                	add    (%ebx),%eax
  47:	00 00                	add    %al,(%eax)
  49:	02 30                	add    (%eax),%dh
  4b:	02 00                	add    (%eax),%al
  4d:	00 02                	add    %al,(%edx)
  4f:	0d 54 00 00 00       	or     $0x54,%eax
  54:	03 04 07             	add    (%edi,%eax,1),%eax
  57:	a2 03 00 00 04       	mov    %al,0x4000003
  5c:	08 02                	or     %al,(%edx)
  5e:	15 ac 00 00 00       	adc    $0xac,%eax
  63:	05 0a 00 00 00       	add    $0xa,%eax
  68:	02 17                	add    (%edi),%dl
  6a:	37                   	aaa    
  6b:	00 00                	add    %al,(%eax)
  6d:	00 00                	add    %al,(%eax)
  6f:	05 4a 00 00 00       	add    $0x4a,%eax
  74:	02 18                	add    (%eax),%bl
  76:	37                   	aaa    
  77:	00 00                	add    %al,(%eax)
  79:	00 02                	add    %al,(%edx)
  7b:	05 52 04 00 00       	add    $0x452,%eax
  80:	02 19                	add    (%ecx),%bl
  82:	25 00 00 00 04       	and    $0x4000000,%eax
  87:	05 97 00 00 00       	add    $0x97,%eax
  8c:	02 1a                	add    (%edx),%bl
  8e:	25 00 00 00 05       	and    $0x5000000,%eax
  93:	05 9e 00 00 00       	add    $0x9e,%eax
  98:	02 1b                	add    (%ebx),%bl
  9a:	25 00 00 00 06       	and    $0x6000000,%eax
  9f:	05 da 00 00 00       	add    $0xda,%eax
  a4:	02 1c 25 00 00 00 07 	add    0x7000000(,%eiz,1),%bl
  ab:	00 02                	add    %al,(%edx)
  ad:	2a 03                	sub    (%ebx),%al
  af:	00 00                	add    %al,(%eax)
  b1:	02 1d 5b 00 00 00    	add    0x5b,%bl
  b7:	04 68                	add    $0x68,%al
  b9:	02 27                	add    (%edi),%ah
  bb:	82 02 00             	addb   $0x0,(%edx)
  be:	00 05 95 02 00 00    	add    %al,0x295
  c4:	02 29                	add    (%ecx),%ch
  c6:	37                   	aaa    
  c7:	00 00                	add    %al,(%eax)
  c9:	00 00                	add    %al,(%eax)
  cb:	05 d9 03 00 00       	add    $0x3d9,%eax
  d0:	02 2a                	add    (%edx),%ch
  d2:	37                   	aaa    
  d3:	00 00                	add    %al,(%eax)
  d5:	00 02                	add    %al,(%edx)
  d7:	05 16 03 00 00       	add    $0x316,%eax
  dc:	02 2b                	add    (%ebx),%ch
  de:	49                   	dec    %ecx
  df:	00 00                	add    %al,(%eax)
  e1:	00 04 06             	add    %al,(%esi,%eax,1)
  e4:	73 73                	jae    159 <.debug_info+0x159>
  e6:	30 00                	xor    %al,(%eax)
  e8:	02 2c 37             	add    (%edi,%esi,1),%ch
  eb:	00 00                	add    %al,(%eax)
  ed:	00 08                	add    %cl,(%eax)
  ef:	05 df 03 00 00       	add    $0x3df,%eax
  f4:	02 2d 37 00 00 00    	add    0x37,%ch
  fa:	0a 05 1b 03 00 00    	or     0x31b,%al
 100:	02 2e                	add    (%esi),%ch
 102:	49                   	dec    %ecx
 103:	00 00                	add    %al,(%eax)
 105:	00 0c 06             	add    %cl,(%esi,%eax,1)
 108:	73 73                	jae    17d <.debug_info+0x17d>
 10a:	31 00                	xor    %eax,(%eax)
 10c:	02 2f                	add    (%edi),%ch
 10e:	37                   	aaa    
 10f:	00 00                	add    %al,(%eax)
 111:	00 10                	add    %dl,(%eax)
 113:	05 e5 03 00 00       	add    $0x3e5,%eax
 118:	02 30                	add    (%eax),%dh
 11a:	37                   	aaa    
 11b:	00 00                	add    %al,(%eax)
 11d:	00 12                	add    %dl,(%edx)
 11f:	05 20 03 00 00       	add    $0x320,%eax
 124:	02 31                	add    (%ecx),%dh
 126:	49                   	dec    %ecx
 127:	00 00                	add    %al,(%eax)
 129:	00 14 06             	add    %dl,(%esi,%eax,1)
 12c:	73 73                	jae    1a1 <.debug_info+0x1a1>
 12e:	32 00                	xor    (%eax),%al
 130:	02 32                	add    (%edx),%dh
 132:	37                   	aaa    
 133:	00 00                	add    %al,(%eax)
 135:	00 18                	add    %bl,(%eax)
 137:	05 eb 03 00 00       	add    $0x3eb,%eax
 13c:	02 33                	add    (%ebx),%dh
 13e:	37                   	aaa    
 13f:	00 00                	add    %al,(%eax)
 141:	00 1a                	add    %bl,(%edx)
 143:	06                   	push   %es
 144:	63 72 33             	arpl   %si,0x33(%edx)
 147:	00 02                	add    %al,(%edx)
 149:	34 49                	xor    $0x49,%al
 14b:	00 00                	add    %al,(%eax)
 14d:	00 1c 06             	add    %bl,(%esi,%eax,1)
 150:	65 69 70 00 02 35 49 	imul   $0x493502,%gs:0x0(%eax),%esi
 157:	00 
 158:	00 00                	add    %al,(%eax)
 15a:	20 05 17 04 00 00    	and    %al,0x417
 160:	02 36                	add    (%esi),%dh
 162:	49                   	dec    %ecx
 163:	00 00                	add    %al,(%eax)
 165:	00 24 06             	add    %ah,(%esi,%eax,1)
 168:	65 61                	gs popa 
 16a:	78 00                	js     16c <.debug_info+0x16c>
 16c:	02 37                	add    (%edi),%dh
 16e:	49                   	dec    %ecx
 16f:	00 00                	add    %al,(%eax)
 171:	00 28                	add    %ch,(%eax)
 173:	06                   	push   %es
 174:	65 63 78 00          	arpl   %di,%gs:0x0(%eax)
 178:	02 38                	add    (%eax),%bh
 17a:	49                   	dec    %ecx
 17b:	00 00                	add    %al,(%eax)
 17d:	00 2c 06             	add    %ch,(%esi,%eax,1)
 180:	65 64 78 00          	gs fs js 184 <.debug_info+0x184>
 184:	02 39                	add    (%ecx),%bh
 186:	49                   	dec    %ecx
 187:	00 00                	add    %al,(%eax)
 189:	00 30                	add    %dh,(%eax)
 18b:	06                   	push   %es
 18c:	65 62 78 00          	bound  %edi,%gs:0x0(%eax)
 190:	02 3a                	add    (%edx),%bh
 192:	49                   	dec    %ecx
 193:	00 00                	add    %al,(%eax)
 195:	00 34 06             	add    %dh,(%esi,%eax,1)
 198:	65 73 70             	gs jae 20b <.debug_info+0x20b>
 19b:	00 02                	add    %al,(%edx)
 19d:	3b 49 00             	cmp    0x0(%ecx),%ecx
 1a0:	00 00                	add    %al,(%eax)
 1a2:	38 06                	cmp    %al,(%esi)
 1a4:	65 62 70 00          	bound  %esi,%gs:0x0(%eax)
 1a8:	02 3c 49             	add    (%ecx,%ecx,2),%bh
 1ab:	00 00                	add    %al,(%eax)
 1ad:	00 3c 06             	add    %bh,(%esi,%eax,1)
 1b0:	65 73 69             	gs jae 21c <.debug_info+0x21c>
 1b3:	00 02                	add    %al,(%edx)
 1b5:	3d 49 00 00 00       	cmp    $0x49,%eax
 1ba:	40                   	inc    %eax
 1bb:	06                   	push   %es
 1bc:	65 64 69 00 02 3e 49 	gs imul $0x493e02,%fs:(%eax),%eax
 1c3:	00 
 1c4:	00 00                	add    %al,(%eax)
 1c6:	44                   	inc    %esp
 1c7:	06                   	push   %es
 1c8:	65 73 00             	gs jae 1cb <.debug_info+0x1cb>
 1cb:	02 3f                	add    (%edi),%bh
 1cd:	37                   	aaa    
 1ce:	00 00                	add    %al,(%eax)
 1d0:	00 48 05             	add    %cl,0x5(%eax)
 1d3:	f1                   	icebp  
 1d4:	03 00                	add    (%eax),%eax
 1d6:	00 02                	add    %al,(%edx)
 1d8:	40                   	inc    %eax
 1d9:	37                   	aaa    
 1da:	00 00                	add    %al,(%eax)
 1dc:	00 4a 06             	add    %cl,0x6(%edx)
 1df:	63 73 00             	arpl   %si,0x0(%ebx)
 1e2:	02 41 37             	add    0x37(%ecx),%al
 1e5:	00 00                	add    %al,(%eax)
 1e7:	00 4c 05 f7          	add    %cl,-0x9(%ebp,%eax,1)
 1eb:	03 00                	add    (%eax),%eax
 1ed:	00 02                	add    %al,(%edx)
 1ef:	42                   	inc    %edx
 1f0:	37                   	aaa    
 1f1:	00 00                	add    %al,(%eax)
 1f3:	00 4e 06             	add    %cl,0x6(%esi)
 1f6:	73 73                	jae    26b <.debug_info+0x26b>
 1f8:	00 02                	add    %al,(%edx)
 1fa:	43                   	inc    %ebx
 1fb:	37                   	aaa    
 1fc:	00 00                	add    %al,(%eax)
 1fe:	00 50 05             	add    %dl,0x5(%eax)
 201:	fd                   	std    
 202:	03 00                	add    (%eax),%eax
 204:	00 02                	add    %al,(%edx)
 206:	44                   	inc    %esp
 207:	37                   	aaa    
 208:	00 00                	add    %al,(%eax)
 20a:	00 52 06             	add    %dl,0x6(%edx)
 20d:	64 73 00             	fs jae 210 <.debug_info+0x210>
 210:	02 45 37             	add    0x37(%ebp),%al
 213:	00 00                	add    %al,(%eax)
 215:	00 54 05 03          	add    %dl,0x3(%ebp,%eax,1)
 219:	04 00                	add    $0x0,%al
 21b:	00 02                	add    %al,(%edx)
 21d:	46                   	inc    %esi
 21e:	37                   	aaa    
 21f:	00 00                	add    %al,(%eax)
 221:	00 56 06             	add    %dl,0x6(%esi)
 224:	66 73 00             	data16 jae 227 <.debug_info+0x227>
 227:	02 47 37             	add    0x37(%edi),%al
 22a:	00 00                	add    %al,(%eax)
 22c:	00 58 05             	add    %bl,0x5(%eax)
 22f:	09 04 00             	or     %eax,(%eax,%eax,1)
 232:	00 02                	add    %al,(%edx)
 234:	48                   	dec    %eax
 235:	37                   	aaa    
 236:	00 00                	add    %al,(%eax)
 238:	00 5a 06             	add    %bl,0x6(%edx)
 23b:	67 73 00             	addr16 jae 23e <.debug_info+0x23e>
 23e:	02 49 37             	add    0x37(%ecx),%cl
 241:	00 00                	add    %al,(%eax)
 243:	00 5c 05 ea          	add    %bl,-0x16(%ebp,%eax,1)
 247:	02 00                	add    (%eax),%al
 249:	00 02                	add    %al,(%edx)
 24b:	4a                   	dec    %edx
 24c:	37                   	aaa    
 24d:	00 00                	add    %al,(%eax)
 24f:	00 5e 05             	add    %bl,0x5(%esi)
 252:	b8 00 00 00 02       	mov    $0x2000000,%eax
 257:	4b                   	dec    %ebx
 258:	37                   	aaa    
 259:	00 00                	add    %al,(%eax)
 25b:	00 60 05             	add    %ah,0x5(%eax)
 25e:	f1                   	icebp  
 25f:	02 00                	add    (%eax),%al
 261:	00 02                	add    %al,(%edx)
 263:	4c                   	dec    %esp
 264:	37                   	aaa    
 265:	00 00                	add    %al,(%eax)
 267:	00 62 05             	add    %ah,0x5(%edx)
 26a:	f7 01 00 00 02 4d    	testl  $0x4d020000,(%ecx)
 270:	37                   	aaa    
 271:	00 00                	add    %al,(%eax)
 273:	00 64 05 01          	add    %ah,0x1(%ebp,%eax,1)
 277:	02 00                	add    (%eax),%al
 279:	00 02                	add    %al,(%edx)
 27b:	4e                   	dec    %esi
 27c:	37                   	aaa    
 27d:	00 00                	add    %al,(%eax)
 27f:	00 66 00             	add    %ah,0x0(%esi)
 282:	07                   	pop    %es
 283:	54                   	push   %esp
 284:	53                   	push   %ebx
 285:	53                   	push   %ebx
 286:	00 02                	add    %al,(%edx)
 288:	4f                   	dec    %edi
 289:	b7 00                	mov    $0x0,%bh
 28b:	00 00                	add    %al,(%eax)
 28d:	04 04                	add    $0x4,%al
 28f:	02 8b 3a 03 00 00    	add    0x33a(%ebx),%cl
 295:	08 0f                	or     %cl,(%edi)
 297:	04 00                	add    $0x0,%al
 299:	00 02                	add    %al,(%edx)
 29b:	8c 3a                	mov    %?,(%edx)
 29d:	03 00                	add    (%eax),%eax
 29f:	00 04 01             	add    %al,(%ecx,%eax,1)
 2a2:	1f                   	pop    %ds
 2a3:	00 09                	add    %cl,(%ecx)
 2a5:	72 77                	jb     31e <.debug_info+0x31e>
 2a7:	00 02                	add    %al,(%edx)
 2a9:	8d 3a                	lea    (%edx),%edi
 2ab:	03 00                	add    (%eax),%eax
 2ad:	00 04 01             	add    %al,(%ecx,%eax,1)
 2b0:	1e                   	push   %ds
 2b1:	00 08                	add    %cl,(%eax)
 2b3:	fe 02                	incb   (%edx)
 2b5:	00 00                	add    %al,(%eax)
 2b7:	02 8e 3a 03 00 00    	add    0x33a(%esi),%cl
 2bd:	04 01                	add    $0x1,%al
 2bf:	1d 00 08 c0 01       	sbb    $0x1c00800,%eax
 2c4:	00 00                	add    %al,(%eax)
 2c6:	02 8f 3a 03 00 00    	add    0x33a(%edi),%cl
 2cc:	04 01                	add    $0x1,%al
 2ce:	1c 00                	sbb    $0x0,%al
 2d0:	08 d1                	or     %dl,%cl
 2d2:	03 00                	add    (%eax),%eax
 2d4:	00 02                	add    %al,(%edx)
 2d6:	90                   	nop
 2d7:	3a 03                	cmp    (%ebx),%al
 2d9:	00 00                	add    %al,(%eax)
 2db:	04 01                	add    $0x1,%al
 2dd:	1b 00                	sbb    (%eax),%eax
 2df:	08 ff                	or     %bh,%bh
 2e1:	00 00                	add    %al,(%eax)
 2e3:	00 02                	add    %al,(%edx)
 2e5:	91                   	xchg   %eax,%ecx
 2e6:	3a 03                	cmp    (%ebx),%al
 2e8:	00 00                	add    %al,(%eax)
 2ea:	04 01                	add    $0x1,%al
 2ec:	1a 00                	sbb    (%eax),%al
 2ee:	08 dc                	or     %bl,%ah
 2f0:	02 00                	add    (%eax),%al
 2f2:	00 02                	add    %al,(%edx)
 2f4:	92                   	xchg   %eax,%edx
 2f5:	3a 03                	cmp    (%ebx),%al
 2f7:	00 00                	add    %al,(%eax)
 2f9:	04 01                	add    $0x1,%al
 2fb:	19 00                	sbb    %eax,(%eax)
 2fd:	08 bd 03 00 00 02    	or     %bh,0x2000003(%ebp)
 303:	93                   	xchg   %eax,%ebx
 304:	3a 03                	cmp    (%ebx),%al
 306:	00 00                	add    %al,(%eax)
 308:	04 01                	add    $0x1,%al
 30a:	18 00                	sbb    %al,(%eax)
 30c:	08 22                	or     %ah,(%edx)
 30e:	01 00                	add    %eax,(%eax)
 310:	00 02                	add    %al,(%edx)
 312:	94                   	xchg   %eax,%esp
 313:	3a 03                	cmp    (%ebx),%al
 315:	00 00                	add    %al,(%eax)
 317:	04 01                	add    $0x1,%al
 319:	17                   	pop    %ss
 31a:	00 08                	add    %cl,(%eax)
 31c:	42                   	inc    %edx
 31d:	02 00                	add    (%eax),%al
 31f:	00 02                	add    %al,(%edx)
 321:	95                   	xchg   %eax,%ebp
 322:	3a 03                	cmp    (%ebx),%al
 324:	00 00                	add    %al,(%eax)
 326:	04 03                	add    $0x3,%al
 328:	14 00                	adc    $0x0,%al
 32a:	08 b5 01 00 00 02    	or     %dh,0x2000001(%ebp)
 330:	96                   	xchg   %eax,%esi
 331:	3a 03                	cmp    (%ebx),%al
 333:	00 00                	add    %al,(%eax)
 335:	04 14                	add    $0x14,%al
 337:	00 00                	add    %al,(%eax)
 339:	00 03                	add    %al,(%ebx)
 33b:	04 07                	add    $0x7,%al
 33d:	b0 02                	mov    $0x2,%al
 33f:	00 00                	add    %al,(%eax)
 341:	0a 04 02             	or     (%edx,%eax,1),%al
 344:	88 60 03             	mov    %ah,0x3(%eax)
 347:	00 00                	add    %al,(%eax)
 349:	0b 55 02             	or     0x2(%ebp),%edx
 34c:	00 00                	add    %al,(%eax)
 34e:	02 8a 3a 03 00 00    	add    0x33a(%edx),%cl
 354:	0b e7                	or     %edi,%esp
 356:	01 00                	add    %eax,(%eax)
 358:	00 02                	add    %al,(%edx)
 35a:	97                   	xchg   %eax,%edi
 35b:	8d 02                	lea    (%edx),%eax
 35d:	00 00                	add    %al,(%eax)
 35f:	00 02                	add    %al,(%edx)
 361:	5d                   	pop    %ebp
 362:	00 00                	add    %al,(%eax)
 364:	00 02                	add    %al,(%edx)
 366:	98                   	cwtl   
 367:	41                   	inc    %ecx
 368:	03 00                	add    (%eax),%eax
 36a:	00 0c 31             	add    %cl,(%ecx,%esi,1)
 36d:	00 00                	add    %al,(%eax)
 36f:	00 08                	add    %cl,(%eax)
 371:	03 04 90             	add    (%eax,%edx,4),%eax
 374:	03 00                	add    (%eax),%eax
 376:	00 05 4d 04 00 00    	add    %al,0x44d
 37c:	03 05 90 03 00 00    	add    0x390,%eax
 382:	00 05 1e 04 00 00    	add    %al,0x41e
 388:	03 05 90 03 00 00    	add    0x390,%eax
 38e:	04 00                	add    $0x0,%al
 390:	0d 04 6b 03 00       	or     $0x36b04,%eax
 395:	00 0c db             	add    %cl,(%ebx,%ebx,8)
 398:	01 00                	add    %eax,(%eax)
 39a:	00 18                	add    %bl,(%eax)
 39c:	04 12                	add    $0x12,%al
 39e:	df 03                	filds  (%ebx)
 3a0:	00 00                	add    %al,(%eax)
 3a2:	06                   	push   %es
 3a3:	50                   	push   %eax
 3a4:	49                   	dec    %ecx
 3a5:	44                   	inc    %esp
 3a6:	00 04 13             	add    %al,(%ebx,%edx,1)
 3a9:	df 03                	filds  (%ebx)
 3ab:	00 00                	add    %al,(%eax)
 3ad:	00 05 10 00 00 00    	add    %al,0x10
 3b3:	04 14                	add    $0x14,%al
 3b5:	e6 03                	out    %al,$0x3
 3b7:	00 00                	add    %al,(%eax)
 3b9:	04 05                	add    $0x5,%al
 3bb:	1d 01 00 00 04       	sbb    $0x4000001,%eax
 3c0:	15 6b 03 00 00       	adc    $0x36b,%eax
 3c5:	08 05 6e 00 00 00    	or     %al,0x6e
 3cb:	04 16                	add    $0x16,%al
 3cd:	ec                   	in     (%dx),%al
 3ce:	03 00                	add    (%eax),%eax
 3d0:	00 10                	add    %dl,(%eax)
 3d2:	05 08 01 00 00       	add    $0x108,%eax
 3d7:	04 17                	add    $0x17,%al
 3d9:	3a 03                	cmp    (%ebx),%al
 3db:	00 00                	add    %al,(%eax)
 3dd:	14 00                	adc    $0x0,%al
 3df:	0e                   	push   %cs
 3e0:	04 05                	add    $0x5,%al
 3e2:	69 6e 74 00 0d 04 60 	imul   $0x60040d00,0x74(%esi),%ebp
 3e9:	03 00                	add    (%eax),%eax
 3eb:	00 0d 04 54 00 00    	add    %cl,0x5404
 3f1:	00 0f                	add    %cl,(%edi)
 3f3:	64 03 00             	add    %fs:(%eax),%eax
 3f6:	00 00                	add    %al,(%eax)
 3f8:	10 04 1a             	adc    %al,(%edx,%ebx,1)
 3fb:	16                   	push   %ss
 3fc:	04 00                	add    $0x0,%al
 3fe:	00 0b                	add    %cl,(%ebx)
 400:	d5 00                	aad    $0x0
 402:	00 00                	add    %al,(%eax)
 404:	04 1b                	add    $0x1b,%al
 406:	96                   	xchg   %eax,%esi
 407:	03 00                	add    (%eax),%eax
 409:	00 0b                	add    %cl,(%ebx)
 40b:	d6                   	(bad)  
 40c:	02 00                	add    (%eax),%al
 40e:	00 04 1c             	add    %al,(%esp,%ebx,1)
 411:	16                   	push   %ss
 412:	04 00                	add    $0x0,%al
 414:	00 00                	add    %al,(%eax)
 416:	10 54 00 00          	adc    %dl,0x0(%eax,%eax,1)
 41a:	00 27                	add    %ah,(%edi)
 41c:	04 00                	add    $0x0,%al
 41e:	00 11                	add    %dl,(%ecx)
 420:	3a 03                	cmp    (%ebx),%al
 422:	00 00                	add    %al,(%eax)
 424:	ff 03                	incl   (%ebx)
 426:	00 10                	add    %dl,(%eax)
 428:	f2 03 00             	repnz add (%eax),%eax
 42b:	00 37                	add    %dh,(%edi)
 42d:	04 00                	add    $0x0,%al
 42f:	00 12                	add    %dl,(%edx)
 431:	3a 03                	cmp    (%ebx),%al
 433:	00 00                	add    %al,(%eax)
 435:	09 00                	or     %eax,(%eax)
 437:	13 d5                	adc    %ebp,%edx
 439:	00 00                	add    %al,(%eax)
 43b:	00 04 1f             	add    %al,(%edi,%ebx,1)
 43e:	27                   	daa    
 43f:	04 00                	add    $0x0,%al
 441:	00 14 00             	add    %dl,(%eax,%eax,1)
 444:	00 00                	add    %al,(%eax)
 446:	00 04 21             	add    %al,(%ecx,%eiz,1)
 449:	53                   	push   %ebx
 44a:	04 00                	add    $0x0,%al
 44c:	00 05 03 00 00 00    	add    %al,0x3
 452:	00 0d 04 96 03 00    	add    %cl,0x39604
 458:	00 14 8b             	add    %dl,(%ebx,%ecx,4)
 45b:	02 00                	add    (%eax),%al
 45d:	00 04 23             	add    %al,(%ebx,%eiz,1)
 460:	6b 03 00             	imul   $0x0,(%ebx),%eax
 463:	00 05 03 00 00 00    	add    %al,0x3
 469:	00 14 aa             	add    %dl,(%edx,%ebp,4)
 46c:	01 00                	add    %eax,(%eax)
 46e:	00 04 25 6b 03 00 00 	add    %al,0x36b(,%eiz,1)
 475:	05 03 00 00 00       	add    $0x3,%eax
 47a:	00 14 c4             	add    %dl,(%esp,%eax,8)
 47d:	03 00                	add    (%eax),%eax
 47f:	00 04 27             	add    %al,(%edi,%eiz,1)
 482:	3a 03                	cmp    (%ebx),%al
 484:	00 00                	add    %al,(%eax)
 486:	05 03 00 00 00       	add    $0x3,%eax
 48b:	00 10                	add    %dl,(%eax)
 48d:	25 00 00 00 9d       	and    $0x9d000000,%eax
 492:	04 00                	add    $0x0,%al
 494:	00 11                	add    %dl,(%ecx)
 496:	3a 03                	cmp    (%ebx),%al
 498:	00 00                	add    %al,(%eax)
 49a:	ff 03                	incl   (%ebx)
 49c:	00 13                	add    %dl,(%ebx)
 49e:	72 02                	jb     4a2 <.debug_info+0x4a2>
 4a0:	00 00                	add    %al,(%eax)
 4a2:	05 10 8c 04 00       	add    $0x48c10,%eax
 4a7:	00 10                	add    %dl,(%eax)
 4a9:	60                   	pusha  
 4aa:	03 00                	add    (%eax),%eax
 4ac:	00 bf 04 00 00 12    	add    %bh,0x12000004(%edi)
 4b2:	3a 03                	cmp    (%ebx),%al
 4b4:	00 00                	add    %al,(%eax)
 4b6:	09 11                	or     %edx,(%ecx)
 4b8:	3a 03                	cmp    (%ebx),%al
 4ba:	00 00                	add    %al,(%eax)
 4bc:	ff 03                	incl   (%ebx)
 4be:	00 13                	add    %dl,(%ebx)
 4c0:	1e                   	push   %ds
 4c1:	02 00                	add    (%eax),%al
 4c3:	00 05 13 a8 04 00    	add    %al,0x4a813
 4c9:	00 15 67 64 74 00    	add    %dl,0x746467
 4cf:	05 1b d5 04 00       	add    $0x4d51b,%eax
 4d4:	00 0d 04 ac 00 00    	add    %cl,0xac04
 4da:	00 15 74 73 73 00    	add    %dl,0x737374
 4e0:	05 1d 82 02 00       	add    $0x2821d,%eax
 4e5:	00 13                	add    %dl,(%ebx)
 4e7:	81 00 00 00 06 0e    	addl   $0xe060000,(%eax)
 4ed:	df 03                	filds  (%ebx)
 4ef:	00 00                	add    %al,(%eax)
 4f1:	16                   	push   %ss
 4f2:	6f                   	outsl  %ds:(%esi),(%dx)
 4f3:	03 00                	add    (%eax),%eax
 4f5:	00 01                	add    %al,(%ecx)
 4f7:	c5 df 03             	(bad)  
 4fa:	00 00                	add    %al,(%eax)
 4fc:	70 05                	jo     503 <.debug_info+0x503>
 4fe:	00 00                	add    %al,(%eax)
 500:	17                   	pop    %ss
 501:	00 00                	add    %al,(%eax)
 503:	00 01                	add    %al,(%ecx)
 505:	9c                   	pushf  
 506:	17                   	pop    %ss
 507:	7b 02                	jnp    50b <.debug_info+0x50b>
 509:	00 00                	add    %al,(%eax)
 50b:	01 ab df 03 00 00    	add    %ebp,0x3df(%ebx)
 511:	90                   	nop
 512:	04 00                	add    $0x0,%al
 514:	00 dc                	add    %bl,%ah
 516:	00 00                	add    %al,(%eax)
 518:	00 01                	add    %al,(%ecx)
 51a:	9c                   	pushf  
 51b:	bb 05 00 00 18       	mov    $0x18000005,%ebx
 520:	66 64 00 01          	data16 add %al,%fs:(%ecx)
 524:	ab                   	stos   %eax,%es:(%edi)
 525:	df 03                	filds  (%ebx)
 527:	00 00                	add    %al,(%eax)
 529:	02 91 00 19 90 03    	add    0x3901900(%ecx),%dl
 52f:	00 00                	add    %al,(%eax)
 531:	01 ab bb 05 00 00    	add    %ebp,0x5bb(%ebx)
 537:	00 00                	add    %al,(%eax)
 539:	00 00                	add    %al,(%eax)
 53b:	19 cc                	sbb    %ecx,%esp
 53d:	03 00                	add    (%eax),%eax
 53f:	00 01                	add    %al,(%ecx)
 541:	ab                   	stos   %eax,%es:(%edi)
 542:	df 03                	filds  (%ebx)
 544:	00 00                	add    %al,(%eax)
 546:	4e                   	dec    %esi
 547:	00 00                	add    %al,(%eax)
 549:	00 1a                	add    %bl,(%edx)
 54b:	65 72 72             	gs jb  5c0 <.debug_info+0x5c0>
 54e:	00 01                	add    %al,(%ecx)
 550:	ad                   	lods   %ds:(%esi),%eax
 551:	df 03                	filds  (%ebx)
 553:	00 00                	add    %al,(%eax)
 555:	1b cb                	sbb    %ebx,%ecx
 557:	00 00                	add    %al,(%eax)
 559:	00 01                	add    %al,(%ecx)
 55b:	b1 c8                	mov    $0xc8,%cl
 55d:	05 00 00 03 91       	add    $0x91030000,%eax
 562:	e0 5f                	loopne 5c3 <.debug_info+0x5c3>
 564:	1c e8                	sbb    $0xe8,%al
 566:	00 00                	add    %al,(%eax)
 568:	00 01                	add    %al,(%ecx)
 56a:	b2 df                	mov    $0xdf,%dl
 56c:	03 00                	add    (%eax),%eax
 56e:	00 9c 00 00 00 1c 79 	add    %bl,0x791c0000(%eax,%eax,1)
 575:	00 00                	add    %al,(%eax)
 577:	00 01                	add    %al,(%ecx)
 579:	b3 df                	mov    $0xdf,%bl
 57b:	03 00                	add    (%eax),%eax
 57d:	00 d6                	add    %dl,%dh
 57f:	00 00                	add    %al,(%eax)
 581:	00 1d f2 07 00 00    	add    %bl,0x7f2
 587:	a7                   	cmpsl  %es:(%edi),%ds:(%esi)
 588:	04 00                	add    $0x0,%al
 58a:	00 00                	add    %al,(%eax)
 58c:	00 00                	add    %al,(%eax)
 58e:	00 01                	add    %al,(%ecx)
 590:	ad                   	lods   %ds:(%esi),%eax
 591:	a8 05                	test   $0x5,%al
 593:	00 00                	add    %al,(%eax)
 595:	1e                   	push   %ds
 596:	0c 08                	or     $0x8,%al
 598:	00 00                	add    %al,(%eax)
 59a:	05 01 00 00 1e       	add    $0x1e000001,%eax
 59f:	02 08                	add    (%eax),%cl
 5a1:	00 00                	add    %al,(%eax)
 5a3:	25 01 00 00 00       	and    $0x1,%eax
 5a8:	1f                   	pop    %ds
 5a9:	fc                   	cld    
 5aa:	04 00                	add    $0x0,%al
 5ac:	00 3c 08             	add    %bh,(%eax,%ecx,1)
 5af:	00 00                	add    %al,(%eax)
 5b1:	1f                   	pop    %ds
 5b2:	05 05 00 00 47       	add    $0x47000005,%eax
 5b7:	08 00                	or     %al,(%eax)
 5b9:	00 00                	add    %al,(%eax)
 5bb:	0d 04 c1 05 00       	or     $0x5c104,%eax
 5c0:	00 03                	add    %al,(%ebx)
 5c2:	01 06                	add    %eax,(%esi)
 5c4:	25 03 00 00 10       	and    $0x10000003,%eax
 5c9:	c1 05 00 00 d9 05 00 	roll   $0x0,0x5d90000
 5d0:	00 11                	add    %dl,(%ecx)
 5d2:	3a 03                	cmp    (%ebx),%al
 5d4:	00 00                	add    %al,(%eax)
 5d6:	ff 0f                	decl   (%edi)
 5d8:	00 20                	add    %ah,(%eax)
 5da:	a5                   	movsl  %ds:(%esi),%es:(%edi)
 5db:	00 00                	add    %al,(%eax)
 5dd:	00 01                	add    %al,(%ecx)
 5df:	a5                   	movsl  %ds:(%esi),%es:(%edi)
 5e0:	80 04 00 00          	addb   $0x0,(%eax,%eax,1)
 5e4:	05 00 00 00 01       	add    $0x1000000,%eax
 5e9:	9c                   	pushf  
 5ea:	21 b4 03 00 00 01 29 	and    %esi,0x29010000(%ebx,%eax,1)
 5f1:	df 03                	filds  (%ebx)
 5f3:	00 00                	add    %al,(%eax)
 5f5:	70 00                	jo     5f7 <.debug_info+0x5f7>
 5f7:	00 00                	add    %al,(%eax)
 5f9:	09 04 00             	or     %eax,(%eax,%eax,1)
 5fc:	00 01                	add    %al,(%ecx)
 5fe:	9c                   	pushf  
 5ff:	94                   	xchg   %eax,%esp
 600:	07                   	pop    %es
 601:	00 00                	add    %al,(%eax)
 603:	1c a6                	sbb    $0xa6,%al
 605:	02 00                	add    (%eax),%al
 607:	00 01                	add    %al,(%ecx)
 609:	2b 90 03 00 00 45    	sub    0x45000003(%eax),%edx
 60f:	01 00                	add    %eax,(%eax)
 611:	00 22                	add    %ah,(%edx)
 613:	74 5f                	je     674 <.debug_info+0x674>
 615:	73 00                	jae    617 <.debug_info+0x617>
 617:	01 2c 53             	add    %ebp,(%ebx,%edx,2)
 61a:	04 00                	add    $0x0,%al
 61c:	00 7f 01             	add    %bh,0x1(%edi)
 61f:	00 00                	add    %al,(%eax)
 621:	1c 5b                	sbb    $0x5b,%al
 623:	03 00                	add    (%eax),%eax
 625:	00 01                	add    %al,(%ecx)
 627:	32 6b 03             	xor    0x3(%ebx),%ch
 62a:	00 00                	add    %al,(%eax)
 62c:	c4 01                	les    (%ecx),%eax
 62e:	00 00                	add    %al,(%eax)
 630:	22 70 61             	and    0x61(%eax),%dh
 633:	67 00 01             	add    %al,(%bx,%di)
 636:	3d df 03 00 00       	cmp    $0x3df,%eax
 63b:	4a                   	dec    %edx
 63c:	02 00                	add    (%eax),%al
 63e:	00 1c ab             	add    %bl,(%ebx,%ebp,4)
 641:	02 00                	add    (%eax),%al
 643:	00 01                	add    %al,(%ecx)
 645:	3e df 03             	filds  %ds:(%ebx)
 648:	00 00                	add    %al,(%eax)
 64a:	ba 02 00 00 1c       	mov    $0x1c000002,%edx
 64f:	86 03                	xchg   %al,(%ebx)
 651:	00 00                	add    %al,(%eax)
 653:	01 3e                	add    %edi,(%esi)
 655:	df 03                	filds  (%ebx)
 657:	00 00                	add    %al,(%eax)
 659:	da 02                	fiaddl (%edx)
 65b:	00 00                	add    %al,(%eax)
 65d:	1c 35                	sbb    $0x35,%al
 65f:	03 00                	add    (%eax),%eax
 661:	00 01                	add    %al,(%ecx)
 663:	3f                   	aas    
 664:	df 03                	filds  (%ebx)
 666:	00 00                	add    %al,(%eax)
 668:	2e 03 00             	add    %cs:(%eax),%eax
 66b:	00 1b                	add    %bl,(%ebx)
 66d:	28 02                	sub    %al,(%edx)
 66f:	00 00                	add    %al,(%eax)
 671:	01 40 94             	add    %eax,-0x6c(%eax)
 674:	07                   	pop    %es
 675:	00 00                	add    %al,(%eax)
 677:	03 91 e0 5f 1c 8c    	add    -0x73e3a020(%ecx),%edx
 67d:	00 00                	add    %al,(%eax)
 67f:	00 01                	add    %al,(%ecx)
 681:	42                   	inc    %edx
 682:	e6 03                	out    %al,$0x3
 684:	00 00                	add    %al,(%eax)
 686:	b5 03                	mov    $0x3,%ch
 688:	00 00                	add    %al,(%eax)
 68a:	1c 4c                	sbb    $0x4c,%al
 68c:	03 00                	add    (%eax),%eax
 68e:	00 01                	add    %al,(%ecx)
 690:	43                   	inc    %ebx
 691:	e6 03                	out    %al,$0x3
 693:	00 00                	add    %al,(%eax)
 695:	fa                   	cli    
 696:	03 00                	add    (%eax),%eax
 698:	00 1c 12             	add    %bl,(%edx,%edx,1)
 69b:	02 00                	add    (%eax),%al
 69d:	00 01                	add    %al,(%ecx)
 69f:	84 df                	test   %bl,%bh
 6a1:	03 00                	add    (%eax),%eax
 6a3:	00 41 04             	add    %al,0x4(%ecx)
 6a6:	00 00                	add    %al,(%eax)
 6a8:	22 69 00             	and    0x0(%ecx),%ch
 6ab:	01 85 df 03 00 00    	add    %eax,0x3df(%ebp)
 6b1:	54                   	push   %esp
 6b2:	04 00                	add    $0x0,%al
 6b4:	00 1c 85 02 00 00 01 	add    %bl,0x1000002(,%eax,4)
 6bb:	85 df                	test   %ebx,%edi
 6bd:	03 00                	add    (%eax),%eax
 6bf:	00 68 04             	add    %ch,0x4(%eax)
 6c2:	00 00                	add    %al,(%eax)
 6c4:	1f                   	pop    %ds
 6c5:	93                   	xchg   %eax,%ebx
 6c6:	00 00                	add    %al,(%eax)
 6c8:	00 52 08             	add    %dl,0x8(%edx)
 6cb:	00 00                	add    %al,(%eax)
 6cd:	1f                   	pop    %ds
 6ce:	c0 00 00             	rolb   $0x0,(%eax)
 6d1:	00 5d 08             	add    %bl,0x8(%ebp)
 6d4:	00 00                	add    %al,(%eax)
 6d6:	1f                   	pop    %ds
 6d7:	cd 00                	int    $0x0
 6d9:	00 00                	add    %al,(%eax)
 6db:	68 08 00 00 1f       	push   $0x1f000008
 6e0:	dc 00                	faddl  (%eax)
 6e2:	00 00                	add    %al,(%eax)
 6e4:	73 08                	jae    6ee <.debug_info+0x6ee>
 6e6:	00 00                	add    %al,(%eax)
 6e8:	1f                   	pop    %ds
 6e9:	e4 00                	in     $0x0,%al
 6eb:	00 00                	add    %al,(%eax)
 6ed:	7e 08                	jle    6f7 <.debug_info+0x6f7>
 6ef:	00 00                	add    %al,(%eax)
 6f1:	1f                   	pop    %ds
 6f2:	e9 00 00 00 68       	jmp    680006f7 <sys_gettime+0x68000187>
 6f7:	08 00                	or     %al,(%eax)
 6f9:	00 1f                	add    %bl,(%edi)
 6fb:	f1                   	icebp  
 6fc:	00 00                	add    %al,(%eax)
 6fe:	00 89 08 00 00 1f    	add    %cl,0x1f000008(%ecx)
 704:	01 01                	add    %eax,(%ecx)
 706:	00 00                	add    %al,(%eax)
 708:	89 08                	mov    %ecx,(%eax)
 70a:	00 00                	add    %al,(%eax)
 70c:	1f                   	pop    %ds
 70d:	28 02                	sub    %al,(%edx)
 70f:	00 00                	add    %al,(%eax)
 711:	94                   	xchg   %eax,%esp
 712:	08 00                	or     %al,(%eax)
 714:	00 1f                	add    %bl,(%edi)
 716:	45                   	inc    %ebp
 717:	02 00                	add    (%eax),%al
 719:	00 73 08             	add    %dh,0x8(%ebx)
 71c:	00 00                	add    %al,(%eax)
 71e:	1f                   	pop    %ds
 71f:	ad                   	lods   %ds:(%esi),%eax
 720:	02 00                	add    (%eax),%al
 722:	00 9f 08 00 00 1f    	add    %bl,0x1f000008(%edi)
 728:	c9                   	leave  
 729:	02 00                	add    (%eax),%al
 72b:	00 68 08             	add    %ch,0x8(%eax)
 72e:	00 00                	add    %al,(%eax)
 730:	1f                   	pop    %ds
 731:	d2 02                	rolb   %cl,(%edx)
 733:	00 00                	add    %al,(%eax)
 735:	aa                   	stos   %al,%es:(%edi)
 736:	08 00                	or     %al,(%eax)
 738:	00 1f                	add    %bl,(%edi)
 73a:	da 02                	fiaddl (%edx)
 73c:	00 00                	add    %al,(%eax)
 73e:	b5 08                	mov    $0x8,%ch
 740:	00 00                	add    %al,(%eax)
 742:	1f                   	pop    %ds
 743:	05 03 00 00 c0       	add    $0xc0000003,%eax
 748:	08 00                	or     %al,(%eax)
 74a:	00 1f                	add    %bl,(%edi)
 74c:	72 03                	jb     751 <.debug_info+0x751>
 74e:	00 00                	add    %al,(%eax)
 750:	9f                   	lahf   
 751:	08 00                	or     %al,(%eax)
 753:	00 1f                	add    %bl,(%edi)
 755:	7e 03                	jle    75a <.debug_info+0x75a>
 757:	00 00                	add    %al,(%eax)
 759:	68 08 00 00 1f       	push   $0x1f000008
 75e:	87 03                	xchg   %eax,(%ebx)
 760:	00 00                	add    %al,(%eax)
 762:	aa                   	stos   %al,%es:(%edi)
 763:	08 00                	or     %al,(%eax)
 765:	00 1f                	add    %bl,(%edi)
 767:	8f 03                	popl   (%ebx)
 769:	00 00                	add    %al,(%eax)
 76b:	b5 08                	mov    $0x8,%ch
 76d:	00 00                	add    %al,(%eax)
 76f:	1f                   	pop    %ds
 770:	ae                   	scas   %es:(%edi),%al
 771:	03 00                	add    (%eax),%eax
 773:	00 cb                	add    %cl,%bl
 775:	08 00                	or     %al,(%eax)
 777:	00 1f                	add    %bl,(%edi)
 779:	b3 03                	mov    $0x3,%bl
 77b:	00 00                	add    %al,(%eax)
 77d:	68 08 00 00 1f       	push   $0x1f000008
 782:	31 04 00             	xor    %eax,(%eax,%eax,1)
 785:	00 d6                	add    %dl,%dh
 787:	08 00                	or     %al,(%eax)
 789:	00 1f                	add    %bl,(%edi)
 78b:	59                   	pop    %ecx
 78c:	04 00                	add    $0x0,%al
 78e:	00 e1                	add    %ah,%cl
 790:	08 00                	or     %al,(%eax)
 792:	00 00                	add    %al,(%eax)
 794:	10 df                	adc    %bl,%bh
 796:	03 00                	add    (%eax),%eax
 798:	00 a5 07 00 00 11    	add    %ah,0x11000007(%ebp)
 79e:	3a 03                	cmp    (%ebx),%al
 7a0:	00 00                	add    %al,(%eax)
 7a2:	ff 03                	incl   (%ebx)
 7a4:	00 16                	add    %dl,(%esi)
 7a6:	23 00                	and    (%eax),%eax
 7a8:	00 00                	add    %al,(%eax)
 7aa:	01 26                	add    %esp,(%esi)
 7ac:	df 03                	filds  (%ebx)
 7ae:	00 00                	add    %al,(%eax)
 7b0:	00 00                	add    %al,(%eax)
 7b2:	00 00                	add    %al,(%eax)
 7b4:	07                   	pop    %es
 7b5:	00 00                	add    %al,(%eax)
 7b7:	00 01                	add    %al,(%ecx)
 7b9:	9c                   	pushf  
 7ba:	21 52 00             	and    %edx,0x0(%edx)
 7bd:	00 00                	add    %al,(%eax)
 7bf:	01 22                	add    %esp,(%edx)
 7c1:	df 03                	filds  (%ebx)
 7c3:	00 00                	add    %al,(%eax)
 7c5:	50                   	push   %eax
 7c6:	00 00                	add    %al,(%eax)
 7c8:	00 1f                	add    %bl,(%edi)
 7ca:	00 00                	add    %al,(%eax)
 7cc:	00 01                	add    %al,(%ecx)
 7ce:	9c                   	pushf  
 7cf:	dd 07                	fldl   (%edi)
 7d1:	00 00                	add    %al,(%eax)
 7d3:	1f                   	pop    %ds
 7d4:	67 00 00             	add    %al,(%bx,%si)
 7d7:	00 68 08             	add    %ch,0x8(%eax)
 7da:	00 00                	add    %al,(%eax)
 7dc:	00 16                	add    %dl,(%esi)
 7de:	3b 00                	cmp    (%eax),%eax
 7e0:	00 00                	add    %al,(%eax)
 7e2:	01 1d df 03 00 00    	add    %ebx,0x3df
 7e8:	40                   	inc    %eax
 7e9:	00 00                	add    %al,(%eax)
 7eb:	00 0a                	add    %cl,(%edx)
 7ed:	00 00                	add    %al,(%eax)
 7ef:	00 01                	add    %al,(%ecx)
 7f1:	9c                   	pushf  
 7f2:	23 5b 02             	and    0x2(%ebx),%ebx
 7f5:	00 00                	add    %al,(%eax)
 7f7:	01 16                	add    %edx,(%esi)
 7f9:	df 03                	filds  (%ebx)
 7fb:	00 00                	add    %al,(%eax)
 7fd:	01 18                	add    %ebx,(%eax)
 7ff:	08 00                	or     %al,(%eax)
 801:	00 24 66             	add    %ah,(%esi,%eiz,2)
 804:	64 00 01             	add    %al,%fs:(%ecx)
 807:	16                   	push   %ss
 808:	df 03                	filds  (%ebx)
 80a:	00 00                	add    %al,(%eax)
 80c:	25 36 02 00 00       	and    $0x236,%eax
 811:	01 16                	add    %edx,(%esi)
 813:	df 03                	filds  (%ebx)
 815:	00 00                	add    %al,(%eax)
 817:	00 26                	add    %ah,(%esi)
 819:	f2 07                	repnz pop %es
 81b:	00 00                	add    %al,(%eax)
 81d:	10 00                	adc    %al,(%eax)
 81f:	00 00                	add    %al,(%eax)
 821:	27                   	daa    
 822:	00 00                	add    %al,(%eax)
 824:	00 01                	add    %al,(%ecx)
 826:	9c                   	pushf  
 827:	3c 08                	cmp    $0x8,%al
 829:	00 00                	add    %al,(%eax)
 82b:	27                   	daa    
 82c:	02 08                	add    (%eax),%cl
 82e:	00 00                	add    %al,(%eax)
 830:	02 91 00 27 0c 08    	add    0x80c2700(%ecx),%dl
 836:	00 00                	add    %al,(%eax)
 838:	02 91 04 00 28 f0    	add    -0xfd7fffc(%ecx),%dl
 83e:	00 00                	add    %al,(%eax)
 840:	00 f0                	add    %dh,%al
 842:	00 00                	add    %al,(%eax)
 844:	00 07                	add    %al,(%edi)
 846:	05 28 3a 03 00       	add    $0x33a28,%eax
 84b:	00 3a                	add    %bh,(%edx)
 84d:	03 00                	add    (%eax),%eax
 84f:	00 08                	add    %cl,(%eax)
 851:	04 28                	add    $0x28,%al
 853:	ec                   	in     (%dx),%al
 854:	01 00                	add    %eax,(%eax)
 856:	00 ec                	add    %ch,%ah
 858:	01 00                	add    %eax,(%eax)
 85a:	00 03                	add    %al,(%ebx)
 85c:	62 28                	bound  %ebp,(%eax)
 85e:	bd 02 00 00 bd       	mov    $0xbd000002,%ebp
 863:	02 00                	add    (%eax),%al
 865:	00 04 40             	add    %al,(%eax,%eax,2)
 868:	28 e2                	sub    %ah,%dl
 86a:	02 00                	add    (%eax),%al
 86c:	00 e2                	add    %ah,%dl
 86e:	02 00                	add    (%eax),%al
 870:	00 04 36             	add    %al,(%esi,%esi,1)
 873:	28 ae 00 00 00 ae    	sub    %ch,-0x52000000(%esi)
 879:	00 00                	add    %al,(%eax)
 87b:	00 07                	add    %al,(%edi)
 87d:	04 28                	add    $0x28,%al
 87f:	48                   	dec    %eax
 880:	02 00                	add    (%eax),%al
 882:	00 48 02             	add    %cl,0x2(%eax)
 885:	00 00                	add    %al,(%eax)
 887:	04 42                	add    $0x42,%al
 889:	28 c8                	sub    %cl,%al
 88b:	01 00                	add    %eax,(%eax)
 88d:	00 c8                	add    %cl,%al
 88f:	01 00                	add    %eax,(%eax)
 891:	00 04 44             	add    %al,(%esp,%eax,2)
 894:	28 39                	sub    %bh,(%ecx)
 896:	04 00                	add    $0x0,%al
 898:	00 39                	add    %bh,(%ecx)
 89a:	04 00                	add    $0x0,%al
 89c:	00 05 26 28 7b 03    	add    %al,0x37b2826
 8a2:	00 00                	add    %al,(%eax)
 8a4:	7b 03                	jnp    8a9 <.debug_info+0x8a9>
 8a6:	00 00                	add    %al,(%eax)
 8a8:	05 27 28 23 04       	add    $0x4232827,%eax
 8ad:	00 00                	add    %al,(%eax)
 8af:	23 04 00             	and    (%eax,%eax,1),%eax
 8b2:	00 04 46             	add    %al,(%esi,%eax,2)
 8b5:	28 10                	sub    %dl,(%eax)
 8b7:	01 00                	add    %eax,(%eax)
 8b9:	00 10                	add    %dl,(%eax)
 8bb:	01 00                	add    %eax,(%eax)
 8bd:	00 05 20 28 cf 01    	add    %al,0x1cf2820
 8c3:	00 00                	add    %al,(%eax)
 8c5:	cf                   	iret   
 8c6:	01 00                	add    %eax,(%eax)
 8c8:	00 05 16 28 44 04    	add    %al,0x4442816
 8ce:	00 00                	add    %al,(%eax)
 8d0:	44                   	inc    %esp
 8d1:	04 00                	add    $0x0,%al
 8d3:	00 03                	add    %al,(%ebx)
 8d5:	54                   	push   %esp
 8d6:	28 2b                	sub    %ch,(%ebx)
 8d8:	04 00                	add    $0x0,%al
 8da:	00 2b                	add    %ch,(%ebx)
 8dc:	04 00                	add    $0x0,%al
 8de:	00 03                	add    %al,(%ebx)
 8e0:	4c                   	dec    %esp
 8e1:	28 97 03 00 00 97    	sub    %dl,-0x68fffffd(%edi)
 8e7:	03 00                	add    (%eax),%eax
 8e9:	00                   	.byte 0x0
 8ea:	05                   	.byte 0x5
 8eb:	17                   	pop    %ss
	...

Disassembly of section .debug_abbrev:

00000000 <.debug_abbrev>:
   0:	01 11                	add    %edx,(%ecx)
   2:	01 25 0e 13 0b 03    	add    %esp,0x30b130e
   8:	0e                   	push   %cs
   9:	1b 0e                	sbb    (%esi),%ecx
   b:	11 01                	adc    %eax,(%ecx)
   d:	12 06                	adc    (%esi),%al
   f:	10 17                	adc    %dl,(%edi)
  11:	00 00                	add    %al,(%eax)
  13:	02 16                	add    (%esi),%dl
  15:	00 03                	add    %al,(%ebx)
  17:	0e                   	push   %cs
  18:	3a 0b                	cmp    (%ebx),%cl
  1a:	3b 0b                	cmp    (%ebx),%ecx
  1c:	49                   	dec    %ecx
  1d:	13 00                	adc    (%eax),%eax
  1f:	00 03                	add    %al,(%ebx)
  21:	24 00                	and    $0x0,%al
  23:	0b 0b                	or     (%ebx),%ecx
  25:	3e 0b 03             	or     %ds:(%ebx),%eax
  28:	0e                   	push   %cs
  29:	00 00                	add    %al,(%eax)
  2b:	04 13                	add    $0x13,%al
  2d:	01 0b                	add    %ecx,(%ebx)
  2f:	0b 3a                	or     (%edx),%edi
  31:	0b 3b                	or     (%ebx),%edi
  33:	0b 01                	or     (%ecx),%eax
  35:	13 00                	adc    (%eax),%eax
  37:	00 05 0d 00 03 0e    	add    %al,0xe03000d
  3d:	3a 0b                	cmp    (%ebx),%cl
  3f:	3b 0b                	cmp    (%ebx),%ecx
  41:	49                   	dec    %ecx
  42:	13 38                	adc    (%eax),%edi
  44:	0b 00                	or     (%eax),%eax
  46:	00 06                	add    %al,(%esi)
  48:	0d 00 03 08 3a       	or     $0x3a080300,%eax
  4d:	0b 3b                	or     (%ebx),%edi
  4f:	0b 49 13             	or     0x13(%ecx),%ecx
  52:	38 0b                	cmp    %cl,(%ebx)
  54:	00 00                	add    %al,(%eax)
  56:	07                   	pop    %es
  57:	16                   	push   %ss
  58:	00 03                	add    %al,(%ebx)
  5a:	08 3a                	or     %bh,(%edx)
  5c:	0b 3b                	or     (%ebx),%edi
  5e:	0b 49 13             	or     0x13(%ecx),%ecx
  61:	00 00                	add    %al,(%eax)
  63:	08 0d 00 03 0e 3a    	or     %cl,0x3a0e0300
  69:	0b 3b                	or     (%ebx),%edi
  6b:	0b 49 13             	or     0x13(%ecx),%ecx
  6e:	0b 0b                	or     (%ebx),%ecx
  70:	0d 0b 0c 0b 38       	or     $0x380b0c0b,%eax
  75:	0b 00                	or     (%eax),%eax
  77:	00 09                	add    %cl,(%ecx)
  79:	0d 00 03 08 3a       	or     $0x3a080300,%eax
  7e:	0b 3b                	or     (%ebx),%edi
  80:	0b 49 13             	or     0x13(%ecx),%ecx
  83:	0b 0b                	or     (%ebx),%ecx
  85:	0d 0b 0c 0b 38       	or     $0x380b0c0b,%eax
  8a:	0b 00                	or     (%eax),%eax
  8c:	00 0a                	add    %cl,(%edx)
  8e:	17                   	pop    %ss
  8f:	01 0b                	add    %ecx,(%ebx)
  91:	0b 3a                	or     (%edx),%edi
  93:	0b 3b                	or     (%ebx),%edi
  95:	0b 01                	or     (%ecx),%eax
  97:	13 00                	adc    (%eax),%eax
  99:	00 0b                	add    %cl,(%ebx)
  9b:	0d 00 03 0e 3a       	or     $0x3a0e0300,%eax
  a0:	0b 3b                	or     (%ebx),%edi
  a2:	0b 49 13             	or     0x13(%ecx),%ecx
  a5:	00 00                	add    %al,(%eax)
  a7:	0c 13                	or     $0x13,%al
  a9:	01 03                	add    %eax,(%ebx)
  ab:	0e                   	push   %cs
  ac:	0b 0b                	or     (%ebx),%ecx
  ae:	3a 0b                	cmp    (%ebx),%cl
  b0:	3b 0b                	cmp    (%ebx),%ecx
  b2:	01 13                	add    %edx,(%ebx)
  b4:	00 00                	add    %al,(%eax)
  b6:	0d 0f 00 0b 0b       	or     $0xb0b000f,%eax
  bb:	49                   	dec    %ecx
  bc:	13 00                	adc    (%eax),%eax
  be:	00 0e                	add    %cl,(%esi)
  c0:	24 00                	and    $0x0,%al
  c2:	0b 0b                	or     (%ebx),%ecx
  c4:	3e 0b 03             	or     %ds:(%ebx),%eax
  c7:	08 00                	or     %al,(%eax)
  c9:	00 0f                	add    %cl,(%edi)
  cb:	17                   	pop    %ss
  cc:	01 03                	add    %eax,(%ebx)
  ce:	0e                   	push   %cs
  cf:	0b 05 3a 0b 3b 0b    	or     0xb3b0b3a,%eax
  d5:	01 13                	add    %edx,(%ebx)
  d7:	00 00                	add    %al,(%eax)
  d9:	10 01                	adc    %al,(%ecx)
  db:	01 49 13             	add    %ecx,0x13(%ecx)
  de:	01 13                	add    %edx,(%ebx)
  e0:	00 00                	add    %al,(%eax)
  e2:	11 21                	adc    %esp,(%ecx)
  e4:	00 49 13             	add    %cl,0x13(%ecx)
  e7:	2f                   	das    
  e8:	05 00 00 12 21       	add    $0x21120000,%eax
  ed:	00 49 13             	add    %cl,0x13(%ecx)
  f0:	2f                   	das    
  f1:	0b 00                	or     (%eax),%eax
  f3:	00 13                	add    %dl,(%ebx)
  f5:	34 00                	xor    $0x0,%al
  f7:	03 0e                	add    (%esi),%ecx
  f9:	3a 0b                	cmp    (%ebx),%cl
  fb:	3b 0b                	cmp    (%ebx),%ecx
  fd:	49                   	dec    %ecx
  fe:	13 3f                	adc    (%edi),%edi
 100:	19 3c 19             	sbb    %edi,(%ecx,%ebx,1)
 103:	00 00                	add    %al,(%eax)
 105:	14 34                	adc    $0x34,%al
 107:	00 03                	add    %al,(%ebx)
 109:	0e                   	push   %cs
 10a:	3a 0b                	cmp    (%ebx),%cl
 10c:	3b 0b                	cmp    (%ebx),%ecx
 10e:	49                   	dec    %ecx
 10f:	13 3f                	adc    (%edi),%edi
 111:	19 02                	sbb    %eax,(%edx)
 113:	18 00                	sbb    %al,(%eax)
 115:	00 15 34 00 03 08    	add    %dl,0x8030034
 11b:	3a 0b                	cmp    (%ebx),%cl
 11d:	3b 0b                	cmp    (%ebx),%ecx
 11f:	49                   	dec    %ecx
 120:	13 3f                	adc    (%edi),%edi
 122:	19 3c 19             	sbb    %edi,(%ecx,%ebx,1)
 125:	00 00                	add    %al,(%eax)
 127:	16                   	push   %ss
 128:	2e 00 3f             	add    %bh,%cs:(%edi)
 12b:	19 03                	sbb    %eax,(%ebx)
 12d:	0e                   	push   %cs
 12e:	3a 0b                	cmp    (%ebx),%cl
 130:	3b 0b                	cmp    (%ebx),%ecx
 132:	49                   	dec    %ecx
 133:	13 11                	adc    (%ecx),%edx
 135:	01 12                	add    %edx,(%edx)
 137:	06                   	push   %es
 138:	40                   	inc    %eax
 139:	18 97 42 19 00 00    	sbb    %dl,0x1942(%edi)
 13f:	17                   	pop    %ss
 140:	2e 01 3f             	add    %edi,%cs:(%edi)
 143:	19 03                	sbb    %eax,(%ebx)
 145:	0e                   	push   %cs
 146:	3a 0b                	cmp    (%ebx),%cl
 148:	3b 0b                	cmp    (%ebx),%ecx
 14a:	27                   	daa    
 14b:	19 49 13             	sbb    %ecx,0x13(%ecx)
 14e:	11 01                	adc    %eax,(%ecx)
 150:	12 06                	adc    (%esi),%al
 152:	40                   	inc    %eax
 153:	18 97 42 19 01 13    	sbb    %dl,0x13011942(%edi)
 159:	00 00                	add    %al,(%eax)
 15b:	18 05 00 03 08 3a    	sbb    %al,0x3a080300
 161:	0b 3b                	or     (%ebx),%edi
 163:	0b 49 13             	or     0x13(%ecx),%ecx
 166:	02 18                	add    (%eax),%bl
 168:	00 00                	add    %al,(%eax)
 16a:	19 05 00 03 0e 3a    	sbb    %eax,0x3a0e0300
 170:	0b 3b                	or     (%ebx),%edi
 172:	0b 49 13             	or     0x13(%ecx),%ecx
 175:	02 17                	add    (%edi),%dl
 177:	00 00                	add    %al,(%eax)
 179:	1a 34 00             	sbb    (%eax,%eax,1),%dh
 17c:	03 08                	add    (%eax),%ecx
 17e:	3a 0b                	cmp    (%ebx),%cl
 180:	3b 0b                	cmp    (%ebx),%ecx
 182:	49                   	dec    %ecx
 183:	13 00                	adc    (%eax),%eax
 185:	00 1b                	add    %bl,(%ebx)
 187:	34 00                	xor    $0x0,%al
 189:	03 0e                	add    (%esi),%ecx
 18b:	3a 0b                	cmp    (%ebx),%cl
 18d:	3b 0b                	cmp    (%ebx),%ecx
 18f:	49                   	dec    %ecx
 190:	13 02                	adc    (%edx),%eax
 192:	18 00                	sbb    %al,(%eax)
 194:	00 1c 34             	add    %bl,(%esp,%esi,1)
 197:	00 03                	add    %al,(%ebx)
 199:	0e                   	push   %cs
 19a:	3a 0b                	cmp    (%ebx),%cl
 19c:	3b 0b                	cmp    (%ebx),%ecx
 19e:	49                   	dec    %ecx
 19f:	13 02                	adc    (%edx),%eax
 1a1:	17                   	pop    %ss
 1a2:	00 00                	add    %al,(%eax)
 1a4:	1d 1d 01 31 13       	sbb    $0x1331011d,%eax
 1a9:	52                   	push   %edx
 1aa:	01 55 17             	add    %edx,0x17(%ebp)
 1ad:	58                   	pop    %eax
 1ae:	0b 59 0b             	or     0xb(%ecx),%ebx
 1b1:	01 13                	add    %edx,(%ebx)
 1b3:	00 00                	add    %al,(%eax)
 1b5:	1e                   	push   %ds
 1b6:	05 00 31 13 02       	add    $0x2133100,%eax
 1bb:	17                   	pop    %ss
 1bc:	00 00                	add    %al,(%eax)
 1be:	1f                   	pop    %ds
 1bf:	89 82 01 00 11 01    	mov    %eax,0x1110001(%edx)
 1c5:	31 13                	xor    %edx,(%ebx)
 1c7:	00 00                	add    %al,(%eax)
 1c9:	20 2e                	and    %ch,(%esi)
 1cb:	00 3f                	add    %bh,(%edi)
 1cd:	19 03                	sbb    %eax,(%ebx)
 1cf:	0e                   	push   %cs
 1d0:	3a 0b                	cmp    (%ebx),%cl
 1d2:	3b 0b                	cmp    (%ebx),%ecx
 1d4:	11 01                	adc    %eax,(%ecx)
 1d6:	12 06                	adc    (%esi),%al
 1d8:	40                   	inc    %eax
 1d9:	18 97 42 19 00 00    	sbb    %dl,0x1942(%edi)
 1df:	21 2e                	and    %ebp,(%esi)
 1e1:	01 3f                	add    %edi,(%edi)
 1e3:	19 03                	sbb    %eax,(%ebx)
 1e5:	0e                   	push   %cs
 1e6:	3a 0b                	cmp    (%ebx),%cl
 1e8:	3b 0b                	cmp    (%ebx),%ecx
 1ea:	49                   	dec    %ecx
 1eb:	13 11                	adc    (%ecx),%edx
 1ed:	01 12                	add    %edx,(%edx)
 1ef:	06                   	push   %es
 1f0:	40                   	inc    %eax
 1f1:	18 97 42 19 01 13    	sbb    %dl,0x13011942(%edi)
 1f7:	00 00                	add    %al,(%eax)
 1f9:	22 34 00             	and    (%eax,%eax,1),%dh
 1fc:	03 08                	add    (%eax),%ecx
 1fe:	3a 0b                	cmp    (%ebx),%cl
 200:	3b 0b                	cmp    (%ebx),%ecx
 202:	49                   	dec    %ecx
 203:	13 02                	adc    (%edx),%eax
 205:	17                   	pop    %ss
 206:	00 00                	add    %al,(%eax)
 208:	23 2e                	and    (%esi),%ebp
 20a:	01 3f                	add    %edi,(%edi)
 20c:	19 03                	sbb    %eax,(%ebx)
 20e:	0e                   	push   %cs
 20f:	3a 0b                	cmp    (%ebx),%cl
 211:	3b 0b                	cmp    (%ebx),%ecx
 213:	27                   	daa    
 214:	19 49 13             	sbb    %ecx,0x13(%ecx)
 217:	20 0b                	and    %cl,(%ebx)
 219:	01 13                	add    %edx,(%ebx)
 21b:	00 00                	add    %al,(%eax)
 21d:	24 05                	and    $0x5,%al
 21f:	00 03                	add    %al,(%ebx)
 221:	08 3a                	or     %bh,(%edx)
 223:	0b 3b                	or     (%ebx),%edi
 225:	0b 49 13             	or     0x13(%ecx),%ecx
 228:	00 00                	add    %al,(%eax)
 22a:	25 05 00 03 0e       	and    $0xe030005,%eax
 22f:	3a 0b                	cmp    (%ebx),%cl
 231:	3b 0b                	cmp    (%ebx),%ecx
 233:	49                   	dec    %ecx
 234:	13 00                	adc    (%eax),%eax
 236:	00 26                	add    %ah,(%esi)
 238:	2e 01 31             	add    %esi,%cs:(%ecx)
 23b:	13 11                	adc    (%ecx),%edx
 23d:	01 12                	add    %edx,(%edx)
 23f:	06                   	push   %es
 240:	40                   	inc    %eax
 241:	18 97 42 19 01 13    	sbb    %dl,0x13011942(%edi)
 247:	00 00                	add    %al,(%eax)
 249:	27                   	daa    
 24a:	05 00 31 13 02       	add    $0x2133100,%eax
 24f:	18 00                	sbb    %al,(%eax)
 251:	00 28                	add    %ch,(%eax)
 253:	2e 00 3f             	add    %bh,%cs:(%edi)
 256:	19 3c 19             	sbb    %edi,(%ecx,%ebx,1)
 259:	6e                   	outsb  %ds:(%esi),(%dx)
 25a:	0e                   	push   %cs
 25b:	03 0e                	add    (%esi),%ecx
 25d:	3a 0b                	cmp    (%ebx),%cl
 25f:	3b 0b                	cmp    (%ebx),%ecx
 261:	00 00                	add    %al,(%eax)
	...

Disassembly of section .debug_loc:

00000000 <.debug_loc>:
   0:	90                   	nop
   1:	04 00                	add    $0x0,%al
   3:	00 c7                	add    %al,%bh
   5:	04 00                	add    $0x0,%al
   7:	00 02                	add    %al,(%edx)
   9:	00 91 04 c7 04 00    	add    %dl,0x4c704(%ecx)
   f:	00 fb                	add    %bh,%bl
  11:	04 00                	add    $0x0,%al
  13:	00 01                	add    %al,(%ecx)
  15:	00 51 fb             	add    %dl,-0x5(%ecx)
  18:	04 00                	add    $0x0,%al
  1a:	00 1e                	add    %bl,(%esi)
  1c:	05 00 00 03 00       	add    $0x30000,%eax
  21:	91                   	xchg   %eax,%ecx
  22:	dc 5f 1e             	fcompl 0x1e(%edi)
  25:	05 00 00 22 05       	add    $0x5220000,%eax
  2a:	00 00                	add    %al,(%eax)
  2c:	01 00                	add    %eax,(%eax)
  2e:	51                   	push   %ecx
  2f:	30 05 00 00 48 05    	xor    %al,0x5480000
  35:	00 00                	add    %al,(%eax)
  37:	01 00                	add    %eax,(%eax)
  39:	51                   	push   %ecx
  3a:	48                   	dec    %eax
  3b:	05 00 00 6c 05       	add    $0x56c0000,%eax
  40:	00 00                	add    %al,(%eax)
  42:	02 00                	add    (%eax),%al
  44:	91                   	xchg   %eax,%ecx
  45:	04 00                	add    $0x0,%al
  47:	00 00                	add    %al,(%eax)
  49:	00 00                	add    %al,(%eax)
  4b:	00 00                	add    %al,(%eax)
  4d:	00 90 04 00 00 c7    	add    %dl,-0x38fffffc(%eax)
  53:	04 00                	add    $0x0,%al
  55:	00 02                	add    %al,(%edx)
  57:	00 91 08 c7 04 00    	add    %dl,0x4c708(%ecx)
  5d:	00 fb                	add    %bh,%bl
  5f:	04 00                	add    $0x0,%al
  61:	00 01                	add    %al,(%ecx)
  63:	00 52 fb             	add    %dl,-0x5(%edx)
  66:	04 00                	add    $0x0,%al
  68:	00 1e                	add    %bl,(%esi)
  6a:	05 00 00 03 00       	add    $0x30000,%eax
  6f:	91                   	xchg   %eax,%ecx
  70:	d8 5f 1e             	fcomps 0x1e(%edi)
  73:	05 00 00 22 05       	add    $0x5220000,%eax
  78:	00 00                	add    %al,(%eax)
  7a:	01 00                	add    %eax,(%eax)
  7c:	52                   	push   %edx
  7d:	30 05 00 00 48 05    	xor    %al,0x5480000
  83:	00 00                	add    %al,(%eax)
  85:	01 00                	add    %eax,(%eax)
  87:	52                   	push   %edx
  88:	48                   	dec    %eax
  89:	05 00 00 6c 05       	add    $0x56c0000,%eax
  8e:	00 00                	add    %al,(%eax)
  90:	02 00                	add    (%eax),%al
  92:	91                   	xchg   %eax,%ecx
  93:	08 00                	or     %al,(%eax)
  95:	00 00                	add    %al,(%eax)
  97:	00 00                	add    %al,(%eax)
  99:	00 00                	add    %al,(%eax)
  9b:	00 c7                	add    %al,%bh
  9d:	04 00                	add    $0x0,%al
  9f:	00 de                	add    %bl,%dh
  a1:	04 00                	add    $0x0,%al
  a3:	00 02                	add    %al,(%edx)
  a5:	00 30                	add    %dh,(%eax)
  a7:	9f                   	lahf   
  a8:	de 04 00             	fiadds (%eax,%eax,1)
  ab:	00 1a                	add    %bl,(%edx)
  ad:	05 00 00 03 00       	add    $0x30000,%eax
  b2:	91                   	xchg   %eax,%ecx
  b3:	d4 5f                	aam    $0x5f
  b5:	1e                   	push   %ds
  b6:	05 00 00 22 05       	add    $0x5220000,%eax
  bb:	00 00                	add    %al,(%eax)
  bd:	03 00                	add    (%eax),%eax
  bf:	91                   	xchg   %eax,%ecx
  c0:	d4 5f                	aam    $0x5f
  c2:	30 05 00 00 48 05    	xor    %al,0x5480000
  c8:	00 00                	add    %al,(%eax)
  ca:	02 00                	add    (%eax),%al
  cc:	30 9f 00 00 00 00    	xor    %bl,0x0(%edi)
  d2:	00 00                	add    %al,(%eax)
  d4:	00 00                	add    %al,(%eax)
  d6:	c7 04 00 00 de 04 00 	movl   $0x4de00,(%eax,%eax,1)
  dd:	00 04 00             	add    %al,(%eax,%eax,1)
  e0:	0a 00                	or     (%eax),%al
  e2:	10 9f de 04 00 00    	adc    %bl,0x4de(%edi)
  e8:	22 05 00 00 01 00    	and    0x10000,%al
  ee:	56                   	push   %esi
  ef:	30 05 00 00 48 05    	xor    %al,0x5480000
  f5:	00 00                	add    %al,(%eax)
  f7:	04 00                	add    $0x0,%al
  f9:	0a 00                	or     (%eax),%al
  fb:	10 9f 00 00 00 00    	adc    %bl,0x0(%edi)
 101:	00 00                	add    %al,(%eax)
 103:	00 00                	add    %al,(%eax)
 105:	93                   	xchg   %eax,%ebx
 106:	04 00                	add    $0x0,%al
 108:	00 b7 04 00 00 02    	add    %dh,0x2000004(%edi)
 10e:	00 31                	add    %dh,(%ecx)
 110:	9f                   	lahf   
 111:	48                   	dec    %eax
 112:	05 00 00 54 05       	add    $0x5540000,%eax
 117:	00 00                	add    %al,(%eax)
 119:	02 00                	add    (%eax),%al
 11b:	31 9f 00 00 00 00    	xor    %ebx,0x0(%edi)
 121:	00 00                	add    %al,(%eax)
 123:	00 00                	add    %al,(%eax)
 125:	93                   	xchg   %eax,%ebx
 126:	04 00                	add    $0x0,%al
 128:	00 b7 04 00 00 02    	add    %dh,0x2000004(%edi)
 12e:	00 91 00 48 05 00    	add    %dl,0x54800(%ecx)
 134:	00 54 05 00          	add    %dl,0x0(%ebp,%eax,1)
 138:	00 02                	add    %al,(%edx)
 13a:	00 91 00 00 00 00    	add    %dl,0x0(%ecx)
 140:	00 00                	add    %al,(%eax)
 142:	00 00                	add    %al,(%eax)
 144:	00 ab 00 00 00 bf    	add    %ch,-0x41000000(%ebx)
 14a:	00 00                	add    %al,(%eax)
 14c:	00 01                	add    %al,(%ecx)
 14e:	00 50 bf             	add    %dl,-0x41(%eax)
 151:	00 00                	add    %al,(%eax)
 153:	00 34 04             	add    %dh,(%esp,%eax,1)
 156:	00 00                	add    %al,(%eax)
 158:	03 00                	add    (%eax),%eax
 15a:	75 c8                	jne    124 <.debug_loc+0x124>
 15c:	5f                   	pop    %edi
 15d:	3e 04 00             	ds add $0x0,%al
 160:	00 71 04             	add    %dh,0x4(%ecx)
 163:	00 00                	add    %al,(%eax)
 165:	03 00                	add    (%eax),%eax
 167:	75 c8                	jne    131 <.debug_loc+0x131>
 169:	5f                   	pop    %edi
 16a:	71 04                	jno    170 <.debug_loc+0x170>
 16c:	00 00                	add    %al,(%eax)
 16e:	72 04                	jb     174 <.debug_loc+0x174>
 170:	00 00                	add    %al,(%eax)
 172:	03 00                	add    (%eax),%eax
 174:	91                   	xchg   %eax,%ecx
 175:	c0 5f 00 00          	rcrb   $0x0,0x0(%edi)
 179:	00 00                	add    %al,(%eax)
 17b:	00 00                	add    %al,(%eax)
 17d:	00 00                	add    %al,(%eax)
 17f:	c8 00 00 00          	enter  $0x0,$0x0
 183:	cc                   	int3   
 184:	00 00                	add    %al,(%eax)
 186:	00 01                	add    %al,(%ecx)
 188:	00 50 cc             	add    %dl,-0x34(%eax)
 18b:	00 00                	add    %al,(%eax)
 18d:	00 12                	add    %dl,(%edx)
 18f:	01 00                	add    %eax,(%eax)
 191:	00 01                	add    %al,(%ecx)
 193:	00 56 12             	add    %dl,0x12(%esi)
 196:	01 00                	add    %eax,(%eax)
 198:	00 34 04             	add    %dh,(%esp,%eax,1)
 19b:	00 00                	add    %al,(%eax)
 19d:	03 00                	add    (%eax),%eax
 19f:	75 c4                	jne    165 <.debug_loc+0x165>
 1a1:	5f                   	pop    %edi
 1a2:	3e 04 00             	ds add $0x0,%al
 1a5:	00 71 04             	add    %dh,0x4(%ecx)
 1a8:	00 00                	add    %al,(%eax)
 1aa:	03 00                	add    (%eax),%eax
 1ac:	75 c4                	jne    172 <.debug_loc+0x172>
 1ae:	5f                   	pop    %edi
 1af:	71 04                	jno    1b5 <.debug_loc+0x1b5>
 1b1:	00 00                	add    %al,(%eax)
 1b3:	72 04                	jb     1b9 <.debug_loc+0x1b9>
 1b5:	00 00                	add    %al,(%eax)
 1b7:	03 00                	add    (%eax),%eax
 1b9:	91                   	xchg   %eax,%ecx
 1ba:	bc 5f 00 00 00       	mov    $0x5f,%esp
 1bf:	00 00                	add    %al,(%eax)
 1c1:	00 00                	add    %al,(%eax)
 1c3:	00 b1 00 00 00 b4    	add    %dh,-0x4c000000(%ecx)
 1c9:	00 00                	add    %al,(%eax)
 1cb:	00 05 00 57 93 04    	add    %al,0x4935700
 1d1:	93                   	xchg   %eax,%ebx
 1d2:	04 b4                	add    $0xb4,%al
 1d4:	00 00                	add    %al,(%eax)
 1d6:	00 b5 00 00 00 06    	add    %dh,0x6000000(%ebp)
 1dc:	00 70 00             	add    %dh,0x0(%eax)
 1df:	93                   	xchg   %eax,%ebx
 1e0:	04 93                	add    $0x93,%al
 1e2:	04 b5                	add    $0xb5,%al
 1e4:	00 00                	add    %al,(%eax)
 1e6:	00 bb 00 00 00 07    	add    %bh,0x7000000(%ebx)
 1ec:	00 75 c0             	add    %dh,-0x40(%ebp)
 1ef:	5f                   	pop    %edi
 1f0:	93                   	xchg   %eax,%ebx
 1f1:	04 93                	add    $0x93,%al
 1f3:	04 bb                	add    $0xbb,%al
 1f5:	00 00                	add    %al,(%eax)
 1f7:	00 f6                	add    %dh,%dh
 1f9:	00 00                	add    %al,(%eax)
 1fb:	00 08                	add    %cl,(%eax)
 1fd:	00 75 c0             	add    %dh,-0x40(%ebp)
 200:	5f                   	pop    %edi
 201:	93                   	xchg   %eax,%ebx
 202:	04 57                	add    $0x57,%al
 204:	93                   	xchg   %eax,%ebx
 205:	04 f6                	add    $0xf6,%al
 207:	00 00                	add    %al,(%eax)
 209:	00 34 04             	add    %dh,(%esp,%eax,1)
 20c:	00 00                	add    %al,(%eax)
 20e:	0a 00                	or     (%eax),%al
 210:	75 c0                	jne    1d2 <.debug_loc+0x1d2>
 212:	5f                   	pop    %edi
 213:	93                   	xchg   %eax,%ebx
 214:	04 75                	add    $0x75,%al
 216:	bc 5f 93 04 3e       	mov    $0x3e04935f,%esp
 21b:	04 00                	add    $0x0,%al
 21d:	00 71 04             	add    %dh,0x4(%ecx)
 220:	00 00                	add    %al,(%eax)
 222:	0a 00                	or     (%eax),%al
 224:	75 c0                	jne    1e6 <.debug_loc+0x1e6>
 226:	5f                   	pop    %edi
 227:	93                   	xchg   %eax,%ebx
 228:	04 75                	add    $0x75,%al
 22a:	bc 5f 93 04 71       	mov    $0x7104935f,%esp
 22f:	04 00                	add    $0x0,%al
 231:	00 72 04             	add    %dh,0x4(%edx)
 234:	00 00                	add    %al,(%eax)
 236:	0a 00                	or     (%eax),%al
 238:	91                   	xchg   %eax,%ecx
 239:	b8 5f 93 04 91       	mov    $0x9104935f,%eax
 23e:	b4 5f                	mov    $0x5f,%ah
 240:	93                   	xchg   %eax,%ebx
 241:	04 00                	add    $0x0,%al
 243:	00 00                	add    %al,(%eax)
 245:	00 00                	add    %al,(%eax)
 247:	00 00                	add    %al,(%eax)
 249:	00 07                	add    %al,(%edi)
 24b:	01 00                	add    %eax,(%eax)
 24d:	00 33                	add    %dh,(%ebx)
 24f:	01 00                	add    %eax,(%eax)
 251:	00 02                	add    %al,(%edx)
 253:	00 30                	add    %dh,(%eax)
 255:	9f                   	lahf   
 256:	33 01                	xor    (%ecx),%eax
 258:	00 00                	add    %al,(%eax)
 25a:	cd 01                	int    $0x1
 25c:	00 00                	add    %al,(%eax)
 25e:	01 00                	add    %eax,(%eax)
 260:	56                   	push   %esi
 261:	cd 01                	int    $0x1
 263:	00 00                	add    %al,(%eax)
 265:	e2 01                	loop   268 <.debug_loc+0x268>
 267:	00 00                	add    %al,(%eax)
 269:	03 00                	add    (%eax),%eax
 26b:	76 7f                	jbe    2ec <.debug_loc+0x2ec>
 26d:	9f                   	lahf   
 26e:	e2 01                	loop   271 <.debug_loc+0x271>
 270:	00 00                	add    %al,(%eax)
 272:	f4                   	hlt    
 273:	01 00                	add    %eax,(%eax)
 275:	00 01                	add    %al,(%ecx)
 277:	00 56 00             	add    %dl,0x0(%esi)
 27a:	02 00                	add    (%eax),%al
 27c:	00 0c 02             	add    %cl,(%edx,%eax,1)
 27f:	00 00                	add    %al,(%eax)
 281:	01 00                	add    %eax,(%eax)
 283:	56                   	push   %esi
 284:	51                   	push   %ecx
 285:	02 00                	add    (%eax),%al
 287:	00 9b 02 00 00 01    	add    %bl,0x1000002(%ebx)
 28d:	00 56 9b             	add    %dl,-0x65(%esi)
 290:	02 00                	add    (%eax),%al
 292:	00 c4                	add    %al,%ah
 294:	02 00                	add    (%eax),%al
 296:	00 03                	add    %al,(%ebx)
 298:	00 75 d8             	add    %dh,-0x28(%ebp)
 29b:	5f                   	pop    %edi
 29c:	ed                   	in     (%dx),%eax
 29d:	02 00                	add    (%eax),%al
 29f:	00 4b 03             	add    %cl,0x3(%ebx)
 2a2:	00 00                	add    %al,(%eax)
 2a4:	01 00                	add    %eax,(%eax)
 2a6:	56                   	push   %esi
 2a7:	3e 04 00             	ds add $0x0,%al
 2aa:	00 43 04             	add    %al,0x4(%ebx)
 2ad:	00 00                	add    %al,(%eax)
 2af:	01 00                	add    %eax,(%eax)
 2b1:	56                   	push   %esi
	...
 2ba:	e4 00                	in     $0x0,%al
 2bc:	00 00                	add    %al,(%eax)
 2be:	33 01                	xor    (%ecx),%eax
 2c0:	00 00                	add    %al,(%eax)
 2c2:	03 00                	add    (%eax),%eax
 2c4:	09 ff                	or     %edi,%edi
 2c6:	9f                   	lahf   
 2c7:	d6                   	(bad)  
 2c8:	01 00                	add    %eax,(%eax)
 2ca:	00 e4                	add    %ah,%ah
 2cc:	01 00                	add    %eax,(%eax)
 2ce:	00 01                	add    %al,(%ecx)
 2d0:	00 52 00             	add    %dl,0x0(%edx)
 2d3:	00 00                	add    %al,(%eax)
 2d5:	00 00                	add    %al,(%eax)
 2d7:	00 00                	add    %al,(%eax)
 2d9:	00 e4                	add    %ah,%ah
 2db:	00 00                	add    %al,(%eax)
 2dd:	00 33                	add    %dh,(%ebx)
 2df:	01 00                	add    %eax,(%eax)
 2e1:	00 03                	add    %al,(%ebx)
 2e3:	00 09                	add    %cl,(%ecx)
 2e5:	ff 9f 33 01 00 00    	lcall  *0x133(%edi)
 2eb:	d6                   	(bad)  
 2ec:	01 00                	add    %eax,(%eax)
 2ee:	00 03                	add    %al,(%ebx)
 2f0:	00 75 e0             	add    %dh,-0x20(%ebp)
 2f3:	5f                   	pop    %edi
 2f4:	e2 01                	loop   2f7 <.debug_loc+0x2f7>
 2f6:	00 00                	add    %al,(%eax)
 2f8:	e4 01                	in     $0x1,%al
 2fa:	00 00                	add    %al,(%eax)
 2fc:	01 00                	add    %eax,(%eax)
 2fe:	50                   	push   %eax
 2ff:	e4 01                	in     $0x1,%al
 301:	00 00                	add    %al,(%eax)
 303:	34 04                	xor    $0x4,%al
 305:	00 00                	add    %al,(%eax)
 307:	03 00                	add    (%eax),%eax
 309:	75 e0                	jne    2eb <.debug_loc+0x2eb>
 30b:	5f                   	pop    %edi
 30c:	3e 04 00             	ds add $0x0,%al
 30f:	00 71 04             	add    %dh,0x4(%ecx)
 312:	00 00                	add    %al,(%eax)
 314:	03 00                	add    (%eax),%eax
 316:	75 e0                	jne    2f8 <.debug_loc+0x2f8>
 318:	5f                   	pop    %edi
 319:	71 04                	jno    31f <.debug_loc+0x31f>
 31b:	00 00                	add    %al,(%eax)
 31d:	72 04                	jb     323 <.debug_loc+0x323>
 31f:	00 00                	add    %al,(%eax)
 321:	03 00                	add    (%eax),%eax
 323:	91                   	xchg   %eax,%ecx
 324:	d8 5f 00             	fcomps 0x0(%edi)
 327:	00 00                	add    %al,(%eax)
 329:	00 00                	add    %al,(%eax)
 32b:	00 00                	add    %al,(%eax)
 32d:	00 e4                	add    %ah,%ah
 32f:	00 00                	add    %al,(%eax)
 331:	00 33                	add    %dh,(%ebx)
 333:	01 00                	add    %eax,(%eax)
 335:	00 03                	add    %al,(%ebx)
 337:	00 09                	add    %cl,(%ecx)
 339:	ff 9f 33 01 00 00    	lcall  *0x133(%edi)
 33f:	59                   	pop    %ecx
 340:	01 00                	add    %eax,(%eax)
 342:	00 01                	add    %al,(%ecx)
 344:	00 52 93             	add    %dl,-0x6d(%edx)
 347:	01 00                	add    %eax,(%eax)
 349:	00 00                	add    %al,(%eax)
 34b:	02 00                	add    (%eax),%al
 34d:	00 01                	add    %al,(%ecx)
 34f:	00 52 00             	add    %dl,0x0(%edx)
 352:	02 00                	add    (%eax),%al
 354:	00 0c 02             	add    %cl,(%edx,%eax,1)
 357:	00 00                	add    %al,(%eax)
 359:	01 00                	add    %eax,(%eax)
 35b:	50                   	push   %eax
 35c:	4e                   	dec    %esi
 35d:	02 00                	add    (%eax),%al
 35f:	00 78 02             	add    %bh,0x2(%eax)
 362:	00 00                	add    %al,(%eax)
 364:	01 00                	add    %eax,(%eax)
 366:	50                   	push   %eax
 367:	78 02                	js     36b <.debug_loc+0x36b>
 369:	00 00                	add    %al,(%eax)
 36b:	9b                   	fwait
 36c:	02 00                	add    (%eax),%al
 36e:	00 02                	add    %al,(%edx)
 370:	00 30                	add    %dh,(%eax)
 372:	9f                   	lahf   
 373:	da 02                	fiaddl (%edx)
 375:	00 00                	add    %al,(%eax)
 377:	ed                   	in     (%dx),%eax
 378:	02 00                	add    (%eax),%al
 37a:	00 02                	add    %al,(%edx)
 37c:	00 30                	add    %dh,(%eax)
 37e:	9f                   	lahf   
 37f:	ed                   	in     (%dx),%eax
 380:	02 00                	add    (%eax),%al
 382:	00 f4                	add    %dh,%ah
 384:	02 00                	add    (%eax),%al
 386:	00 01                	add    %al,(%ecx)
 388:	00 52 f9             	add    %dl,-0x7(%edx)
 38b:	02 00                	add    (%eax),%al
 38d:	00 04 03             	add    %al,(%ebx,%eax,1)
 390:	00 00                	add    %al,(%eax)
 392:	01 00                	add    %eax,(%eax)
 394:	52                   	push   %edx
 395:	3c 03                	cmp    $0x3,%al
 397:	00 00                	add    %al,(%eax)
 399:	43                   	inc    %ebx
 39a:	03 00                	add    (%eax),%eax
 39c:	00 03                	add    %al,(%ebx)
 39e:	00 70 7f             	add    %dh,0x7f(%eax)
 3a1:	9f                   	lahf   
 3a2:	43                   	inc    %ebx
 3a3:	03 00                	add    (%eax),%eax
 3a5:	00 53 03             	add    %dl,0x3(%ebx)
 3a8:	00 00                	add    %al,(%eax)
 3aa:	01 00                	add    %eax,(%eax)
 3ac:	50                   	push   %eax
	...
 3b5:	fc                   	cld    
 3b6:	00 00                	add    %al,(%eax)
 3b8:	00 00                	add    %al,(%eax)
 3ba:	01 00                	add    %eax,(%eax)
 3bc:	00 01                	add    %al,(%ecx)
 3be:	00 50 00             	add    %dl,0x0(%eax)
 3c1:	01 00                	add    %eax,(%eax)
 3c3:	00 33                	add    %dh,(%ebx)
 3c5:	01 00                	add    %eax,(%eax)
 3c7:	00 01                	add    %al,(%ecx)
 3c9:	00 57 33             	add    %dl,0x33(%edi)
 3cc:	01 00                	add    %eax,(%eax)
 3ce:	00 34 04             	add    %dh,(%esp,%eax,1)
 3d1:	00 00                	add    %al,(%eax)
 3d3:	03 00                	add    (%eax),%eax
 3d5:	75 d0                	jne    3a7 <.debug_loc+0x3a7>
 3d7:	5f                   	pop    %edi
 3d8:	3e 04 00             	ds add $0x0,%al
 3db:	00 71 04             	add    %dh,0x4(%ecx)
 3de:	00 00                	add    %al,(%eax)
 3e0:	03 00                	add    (%eax),%eax
 3e2:	75 d0                	jne    3b4 <.debug_loc+0x3b4>
 3e4:	5f                   	pop    %edi
 3e5:	71 04                	jno    3eb <.debug_loc+0x3eb>
 3e7:	00 00                	add    %al,(%eax)
 3e9:	72 04                	jb     3ef <.debug_loc+0x3ef>
 3eb:	00 00                	add    %al,(%eax)
 3ed:	03 00                	add    (%eax),%eax
 3ef:	91                   	xchg   %eax,%ecx
 3f0:	c8 5f 00 00          	enter  $0x5f,$0x0
 3f4:	00 00                	add    %al,(%eax)
 3f6:	00 00                	add    %al,(%eax)
 3f8:	00 00                	add    %al,(%eax)
 3fa:	07                   	pop    %es
 3fb:	01 00                	add    %eax,(%eax)
 3fd:	00 0d 01 00 00 01    	add    %cl,0x1000001
 403:	00 50 0d             	add    %dl,0xd(%eax)
 406:	01 00                	add    %eax,(%eax)
 408:	00 00                	add    %al,(%eax)
 40a:	02 00                	add    (%eax),%al
 40c:	00 03                	add    %al,(%ebx)
 40e:	00 75 dc             	add    %dh,-0x24(%ebp)
 411:	5f                   	pop    %edi
 412:	ed                   	in     (%dx),%eax
 413:	02 00                	add    (%eax),%al
 415:	00 3c 03             	add    %bh,(%ebx,%eax,1)
 418:	00 00                	add    %al,(%eax)
 41a:	03 00                	add    (%eax),%eax
 41c:	75 dc                	jne    3fa <.debug_loc+0x3fa>
 41e:	5f                   	pop    %edi
 41f:	3e 04 00             	ds add $0x0,%al
 422:	00 71 04             	add    %dh,0x4(%ecx)
 425:	00 00                	add    %al,(%eax)
 427:	03 00                	add    (%eax),%eax
 429:	75 dc                	jne    407 <.debug_loc+0x407>
 42b:	5f                   	pop    %edi
 42c:	71 04                	jno    432 <.debug_loc+0x432>
 42e:	00 00                	add    %al,(%eax)
 430:	72 04                	jb     436 <.debug_loc+0x436>
 432:	00 00                	add    %al,(%eax)
 434:	03 00                	add    (%eax),%eax
 436:	91                   	xchg   %eax,%ecx
 437:	d4 5f                	aam    $0x5f
	...
 441:	d0 03                	rolb   (%ebx)
 443:	00 00                	add    %al,(%eax)
 445:	34 04                	xor    $0x4,%al
 447:	00 00                	add    %al,(%eax)
 449:	01 00                	add    %eax,(%eax)
 44b:	56                   	push   %esi
	...
 454:	e1 03                	loope  459 <.debug_loc+0x459>
 456:	00 00                	add    %al,(%eax)
 458:	e6 03                	out    %al,$0x3
 45a:	00 00                	add    %al,(%eax)
 45c:	02 00                	add    (%eax),%al
 45e:	30 9f 00 00 00 00    	xor    %bl,0x0(%edi)
 464:	00 00                	add    %al,(%eax)
 466:	00 00                	add    %al,(%eax)
 468:	d0 03                	rolb   (%ebx)
 46a:	00 00                	add    %al,(%eax)
 46c:	e1 03                	loope  471 <.debug_loc+0x471>
 46e:	00 00                	add    %al,(%eax)
 470:	02 00                	add    (%eax),%al
 472:	30 9f e1 03 00 00    	xor    %bl,0x3e1(%edi)
 478:	e6 03                	out    %al,$0x3
 47a:	00 00                	add    %al,(%eax)
 47c:	02 00                	add    (%eax),%al
 47e:	31 9f e6 03 00 00    	xor    %ebx,0x3e6(%edi)
 484:	30 04 00             	xor    %al,(%eax,%eax,1)
 487:	00 01                	add    %al,(%ecx)
 489:	00 51 00             	add    %dl,0x0(%ecx)
 48c:	00 00                	add    %al,(%eax)
 48e:	00 00                	add    %al,(%eax)
 490:	00 00                	add    %al,(%eax)
	...

Disassembly of section .debug_aranges:

00000000 <.debug_aranges>:
   0:	1c 00                	sbb    $0x0,%al
   2:	00 00                	add    %al,(%eax)
   4:	02 00                	add    (%eax),%al
   6:	00 00                	add    %al,(%eax)
   8:	00 00                	add    %al,(%eax)
   a:	04 00                	add    $0x0,%al
	...
  14:	87 05 00 00 00 00    	xchg   %eax,0x0
  1a:	00 00                	add    %al,(%eax)
  1c:	00 00                	add    %al,(%eax)
	...

Disassembly of section .debug_ranges:

00000000 <.debug_ranges>:
   0:	a7                   	cmpsl  %es:(%edi),%ds:(%esi)
   1:	04 00                	add    $0x0,%al
   3:	00 ab 04 00 00 b1    	add    %ch,-0x4efffffc(%ebx)
   9:	04 00                	add    $0x0,%al
   b:	00 b7 04 00 00 48    	add    %dh,0x48000004(%edi)
  11:	05 00 00 54 05       	add    $0x5540000,%eax
	...

Disassembly of section .debug_line:

00000000 <.debug_line>:
   0:	94                   	xchg   %eax,%esp
   1:	01 00                	add    %eax,(%eax)
   3:	00 02                	add    %al,(%edx)
   5:	00 70 00             	add    %dh,0x0(%eax)
   8:	00 00                	add    %al,(%eax)
   a:	01 01                	add    %eax,(%ecx)
   c:	fb                   	sti    
   d:	0e                   	push   %cs
   e:	0d 00 01 01 01       	or     $0x1010100,%eax
  13:	01 00                	add    %eax,(%eax)
  15:	00 00                	add    %al,(%eax)
  17:	01 00                	add    %eax,(%eax)
  19:	00 01                	add    %al,(%ecx)
  1b:	69 6e 63 6c 75 64 65 	imul   $0x6564756c,0x63(%esi),%ebp
  22:	00 00                	add    %al,(%eax)
  24:	73 79                	jae    9f <.debug_line+0x9f>
  26:	73 2e                	jae    56 <.debug_line+0x56>
  28:	63 00                	arpl   %ax,(%eax)
  2a:	00 00                	add    %al,(%eax)
  2c:	00 74 79 70          	add    %dh,0x70(%ecx,%edi,2)
  30:	65 73 2e             	gs jae 61 <.debug_line+0x61>
  33:	68 00 01 00 00       	push   $0x100
  38:	6c                   	insb   (%dx),%es:(%edi)
  39:	69 73 74 2e 68 00 01 	imul   $0x100682e,0x74(%ebx),%esi
  40:	00 00                	add    %al,(%eax)
  42:	73 63                	jae    a7 <.debug_line+0xa7>
  44:	68 65 64 2e 68       	push   $0x682e6465
  49:	00 01                	add    %al,(%ecx)
  4b:	00 00                	add    %al,(%eax)
  4d:	6d                   	insl   (%dx),%es:(%edi)
  4e:	6d                   	insl   (%dx),%es:(%edi)
  4f:	2e 68 00 01 00 00    	cs push $0x100
  55:	73 79                	jae    d0 <.debug_line+0xd0>
  57:	73 74                	jae    cd <.debug_line+0xcd>
  59:	65 6d                	gs insl (%dx),%es:(%edi)
  5b:	2e 68 00 01 00 00    	cs push $0x100
  61:	75 74                	jne    d7 <.debug_line+0xd7>
  63:	69 6c 73 2e 68 00 01 	imul   $0x10068,0x2e(%ebx,%esi,2),%ebp
  6a:	00 
  6b:	00 64 65 76          	add    %ah,0x76(%ebp,%eiz,2)
  6f:	69 63 65 73 2e 68 00 	imul   $0x682e73,0x65(%ebx),%esp
  76:	01 00                	add    %eax,(%eax)
  78:	00 00                	add    %al,(%eax)
  7a:	00 05 02 00 00 00    	add    %al,0x2
  80:	00 03                	add    %al,(%ebx)
  82:	25 01 22 2c 30       	and    $0x302c2201,%eax
  87:	03 6f ac             	add    -0x54(%edi),%ebp
  8a:	3d 68 d7 1f 3d       	cmp    $0x3d1fd768,%eax
  8f:	55                   	push   %ebp
  90:	5b                   	pop    %ebx
  91:	af                   	scas   %es:(%edi),%eax
  92:	22 56 30             	and    0x30(%esi),%dl
  95:	85 08                	test   %ecx,(%eax)
  97:	21 75 79             	and    %esi,0x79(%ebp)
  9a:	08 6b 08             	or     %ch,0x8(%ebx)
  9d:	68 32 39 2d 67       	push   $0x672d3932
  a2:	93                   	xchg   %eax,%ebx
  a3:	1d 69 c9 08 40       	sbb    $0x4008c969,%eax
  a8:	8a c9                	mov    %cl,%cl
  aa:	3b 83 08 3d 29 57    	cmp    0x57293d08(%ebx),%eax
  b0:	08 fa                	or     %bh,%dl
  b2:	03 11                	add    (%ecx),%edx
  b4:	ac                   	lods   %ds:(%esi),%al
  b5:	08 59 83             	or     %bl,-0x7d(%ecx)
  b8:	c9                   	leave  
  b9:	c9                   	leave  
  ba:	08 30                	or     %dh,(%eax)
  bc:	00 02                	add    %al,(%edx)
  be:	04 02                	add    $0x2,%al
  c0:	03 67 58             	add    0x58(%edi),%esp
  c3:	d7                   	xlat   %ds:(%ebx)
  c4:	03 1a                	add    (%edx),%ebx
  c6:	74 67                	je     12f <.debug_line+0x12f>
  c8:	3b 75 a0             	cmp    -0x60(%ebp),%esi
  cb:	03 62 82             	add    -0x7e(%edx),%esp
  ce:	03 1f                	add    (%edi),%ebx
  d0:	08 20                	or     %ah,(%eax)
  d2:	03 61 66             	add    0x66(%ecx),%esp
  d5:	03 26                	add    (%esi),%esp
  d7:	d6                   	(bad)  
  d8:	2f                   	das    
  d9:	03 09                	add    (%ecx),%ecx
  db:	08 90 08 ae 00 02    	or     %dl,0x200ae08(%eax)
  e1:	04 02                	add    $0x2,%al
  e3:	03 75 02             	add    0x2(%ebp),%esi
  e6:	26 01 e5             	es add %esp,%ebp
  e9:	d7                   	xlat   %ds:(%ebx)
  ea:	c9                   	leave  
  eb:	00 02                	add    %al,(%edx)
  ed:	04 03                	add    $0x3,%al
  ef:	02 28                	add    (%eax),%ch
  f1:	13 00                	adc    (%eax),%eax
  f3:	02 04 03             	add    (%ebx,%eax,1),%al
  f6:	c7                   	(bad)  
  f7:	08 69 03             	or     %ch,0x3(%ecx)
  fa:	56                   	push   %esi
  fb:	02 3c 01             	add    (%ecx,%eax,1),%bh
  fe:	ad                   	lods   %ds:(%esi),%eax
  ff:	3b 3d be 65 3d 03    	cmp    0x33d65be,%edi
 105:	11 9e 03 6f 58 03    	adc    %ebx,0x3586f03(%esi)
 10b:	2e ac                	lods   %cs:(%esi),%al
 10d:	00 02                	add    %al,(%edx)
 10f:	04 03                	add    $0x3,%al
 111:	08 e5                	or     %ah,%ch
 113:	00 02                	add    %al,(%edx)
 115:	04 03                	add    $0x3,%al
 117:	08 1f                	or     %bl,(%edi)
 119:	77 08                	ja     123 <.debug_line+0x123>
 11b:	5b                   	pop    %ebx
 11c:	08 67 85             	or     %ah,-0x7b(%edi)
 11f:	02 22                	add    (%edx),%ah
 121:	19 d2                	sbb    %edx,%edx
 123:	3d e7 aa 47 52       	cmp    $0x5247aae7,%eax
 128:	6c                   	insb   (%dx),%es:(%edi)
 129:	69 39 03 7a 3c 35    	imul   $0x353c7a03,(%ecx),%edi
 12f:	3b 3d 3e 08 14 03    	cmp    0x314083e,%edi
 135:	0a 3c 03             	or     (%ebx,%eax,1),%bh
 138:	ac                   	lods   %ds:(%esi),%al
 139:	7f 08                	jg     143 <.debug_line+0x143>
 13b:	3c 83                	cmp    $0x83,%al
 13d:	e2 03                	loop   142 <.debug_line+0x142>
 13f:	d5 00                	aad    $0x0
 141:	4a                   	dec    %edx
 142:	03 b1 7f 3c 03 cf    	add    -0x30fcc381(%ecx),%esi
 148:	00 58 03             	add    %bl,0x3(%eax)
 14b:	8d 7f 74             	lea    0x74(%edi),%edi
 14e:	03 f6                	add    %esi,%esi
 150:	00 d6                	add    %dl,%dh
 152:	3d cc 03 ed 7e       	cmp    $0x7eed03cc,%eax
 157:	08 66 03             	or     %ah,0x3(%esi)
 15a:	93                   	xchg   %eax,%ebx
 15b:	01 4a 03             	add    %ecx,0x3(%edx)
 15e:	ed                   	in     (%dx),%eax
 15f:	7e 66                	jle    1c7 <sys_fork+0x157>
 161:	03 97 01 66 83 86    	add    -0x797c99ff(%edi),%edx
 167:	81 57 db 08 92 93 65 	adcl   $0x65939208,-0x25(%edi)
 16e:	03 79 66             	add    0x66(%ecx),%edi
 171:	03 09                	add    (%ecx),%ecx
 173:	3c 65                	cmp    $0x65,%al
 175:	2d 03 79 2e 03       	sub    $0x32e7903,%eax
 17a:	0e                   	push   %cs
 17b:	4a                   	dec    %edx
 17c:	03 70 d6             	add    -0x2a(%eax),%esi
 17f:	03 10                	add    (%eax),%edx
 181:	9e                   	sahf   
 182:	03 d6                	add    %esi,%edx
 184:	7e d6                	jle    15c <.debug_line+0x15c>
 186:	03 98 01 ba b9 03    	add    0x3b9ba01(%eax),%ebx
 18c:	16                   	push   %ss
 18d:	f2 ae                	repnz scas %es:(%edi),%al
 18f:	64 31 1f             	xor    %ebx,%fs:(%edi)
 192:	2f                   	das    
 193:	02 01                	add    (%ecx),%al
 195:	00 01                	add    %al,(%ecx)
 197:	01                   	.byte 0x1

Disassembly of section .debug_str:

00000000 <.debug_str>:
   0:	69 64 6c 65 5f 74 61 	imul   $0x7361745f,0x65(%esp,%ebp,2),%esp
   7:	73 
   8:	6b 00 6c             	imul   $0x6c,(%eax),%eax
   b:	69 6d 69 74 00 64 69 	imul   $0x69640074,0x69(%ebp),%ebp
  12:	72 5f                	jb     73 <.debug_str+0x73>
  14:	70 61                	jo     77 <.debug_str+0x77>
  16:	67 65 73 5f          	addr16 gs jae 79 <.debug_str+0x79>
  1a:	62 61 73             	bound  %esp,0x73(%ecx)
  1d:	65 41                	gs inc %ecx
  1f:	64 64 72 00          	fs fs jb 23 <.debug_str+0x23>
  23:	72 65                	jb     8a <.debug_str+0x8a>
  25:	74 5f                	je     86 <.debug_str+0x86>
  27:	66 72 6f             	data16 jb 99 <.debug_str+0x99>
  2a:	6d                   	insl   (%dx),%es:(%edi)
  2b:	5f                   	pop    %edi
  2c:	66 6f                	outsw  %ds:(%esi),(%dx)
  2e:	72 6b                	jb     9b <.debug_str+0x9b>
  30:	00 6c 69 73          	add    %ch,0x73(%ecx,%ebp,2)
  34:	74 5f                	je     95 <.debug_str+0x95>
  36:	68 65 61 64 00       	push   $0x646165
  3b:	73 79                	jae    b6 <.debug_str+0xb6>
  3d:	73 5f                	jae    9e <.debug_str+0x9e>
  3f:	6e                   	outsb  %ds:(%esi),(%dx)
  40:	69 5f 73 79 73 63 61 	imul   $0x61637379,0x73(%edi),%ebx
  47:	6c                   	insb   (%dx),%es:(%edi)
  48:	6c                   	insb   (%dx),%es:(%edi)
  49:	00 6c 6f 77          	add    %ch,0x77(%edi,%ebp,2)
  4d:	42                   	inc    %edx
  4e:	61                   	popa   
  4f:	73 65                	jae    b6 <.debug_str+0xb6>
  51:	00 73 79             	add    %dh,0x79(%ebx)
  54:	73 5f                	jae    b5 <.debug_str+0xb5>
  56:	67 65 74 70          	addr16 gs je ca <.debug_str+0xca>
  5a:	69 64 00 70 61 67 65 	imul   $0x5f656761,0x70(%eax,%eax,1),%esp
  61:	5f 
  62:	74 61                	je     c5 <.debug_str+0xc5>
  64:	62 6c 65 5f          	bound  %ebp,0x5f(%ebp,%eiz,2)
  68:	65 6e                	outsb  %gs:(%esi),(%dx)
  6a:	74 72                	je     de <.debug_str+0xde>
  6c:	79 00                	jns    6e <.debug_str+0x6e>
  6e:	4b                   	dec    %ebx
  6f:	45                   	inc    %ebp
  70:	52                   	push   %edx
  71:	4e                   	dec    %esi
  72:	45                   	inc    %ebp
  73:	4c                   	dec    %esp
  74:	5f                   	pop    %edi
  75:	45                   	inc    %ebp
  76:	42                   	inc    %edx
  77:	50                   	push   %eax
  78:	00 74 6d 70          	add    %dh,0x70(%ebp,%ebp,2)
  7c:	73 69                	jae    e7 <.debug_str+0xe7>
  7e:	7a 65                	jp     e5 <.debug_str+0xe5>
  80:	00 7a 65             	add    %bh,0x65(%edx)
  83:	6f                   	outsl  %ds:(%esi),(%dx)
  84:	73 5f                	jae    e5 <.debug_str+0xe5>
  86:	74 69                	je     f1 <.debug_str+0xf1>
  88:	63 6b 73             	arpl   %bp,0x73(%ebx)
  8b:	00 70 72             	add    %dh,0x72(%eax)
  8e:	6f                   	outsl  %ds:(%esi),(%dx)
  8f:	63 65 73             	arpl   %sp,0x73(%ebp)
  92:	73 5f                	jae    f3 <.debug_str+0xf3>
  94:	50                   	push   %eax
  95:	54                   	push   %esp
  96:	00 66 6c             	add    %ah,0x6c(%esi)
  99:	61                   	popa   
  9a:	67 73 31             	addr16 jae ce <.debug_str+0xce>
  9d:	00 66 6c             	add    %ah,0x6c(%esi)
  a0:	61                   	popa   
  a1:	67 73 32             	addr16 jae d6 <.debug_str+0xd6>
  a4:	00 73 79             	add    %dh,0x79(%ebx)
  a7:	73 5f                	jae    108 <.debug_str+0x108>
  a9:	65 78 69             	gs js  115 <.debug_str+0x115>
  ac:	74 00                	je     ae <.debug_str+0xae>
  ae:	63 6f 70             	arpl   %bp,0x70(%edi)
  b1:	79 5f                	jns    112 <.debug_str+0x112>
  b3:	64 61                	fs popa 
  b5:	74 61                	je     118 <.debug_str+0x118>
  b7:	00 4c 44 54          	add    %cl,0x54(%esp,%eax,2)
  bb:	53                   	push   %ebx
  bc:	65 67 6d             	gs insl (%dx),%es:(%di)
  bf:	65 6e                	outsb  %gs:(%esi),(%dx)
  c1:	74 53                	je     116 <.debug_str+0x116>
  c3:	65 6c                	gs insb (%dx),%es:(%edi)
  c5:	65 63 74 6f 72       	arpl   %si,%gs:0x72(%edi,%ebp,2)
  ca:	00 73 79             	add    %dh,0x79(%ebx)
  cd:	73 62                	jae    131 <.debug_str+0x131>
  cf:	75 66                	jne    137 <.debug_str+0x137>
  d1:	66 65 72 00          	data16 gs jb d5 <.debug_str+0xd5>
  d5:	74 61                	je     138 <.debug_str+0x138>
  d7:	73 6b                	jae    144 <.debug_str+0x144>
  d9:	00 68 69             	add    %ch,0x69(%eax)
  dc:	67 68 42 61 73 65    	addr16 push $0x65736142
  e2:	00 42 79             	add    %al,0x79(%edx)
  e5:	74 65                	je     14c <.debug_str+0x14c>
  e7:	00 77 72             	add    %dh,0x72(%edi)
  ea:	69 74 74 65 6e 00 63 	imul   $0x6f63006e,0x65(%esp,%esi,2),%esi
  f1:	6f 
  f2:	70 79                	jo     16d <.debug_str+0x16d>
  f4:	5f                   	pop    %edi
  f5:	66 72 6f             	data16 jb 167 <.debug_str+0x167>
  f8:	6d                   	insl   (%dx),%es:(%edi)
  f9:	5f                   	pop    %edi
  fa:	75 73                	jne    16f <.debug_str+0x16f>
  fc:	65 72 00             	gs jb  ff <.debug_str+0xff>
  ff:	61                   	popa   
 100:	63 63 65             	arpl   %sp,0x65(%ebx)
 103:	73 73                	jae    178 <.debug_str+0x178>
 105:	65 64 00 51 55       	gs add %dl,%fs:0x55(%ecx)
 10a:	41                   	inc    %ecx
 10b:	4e                   	dec    %esi
 10c:	54                   	push   %esp
 10d:	55                   	push   %ebp
 10e:	4d                   	dec    %ebp
 10f:	00 73 65             	add    %dh,0x65(%ebx)
 112:	74 5f                	je     173 <.debug_str+0x173>
 114:	63 72 33             	arpl   %si,0x33(%edx)
 117:	00 57 6f             	add    %dl,0x6f(%edi)
 11a:	72 64                	jb     180 <.debug_str+0x180>
 11c:	00 6c 69 73          	add    %ch,0x73(%ecx,%ebp,2)
 120:	74 00                	je     122 <.debug_str+0x122>
 122:	67 6c                	insb   (%dx),%es:(%di)
 124:	6f                   	outsl  %ds:(%esi),(%dx)
 125:	62 61 6c             	bound  %esp,0x6c(%ecx)
 128:	00 47 4e             	add    %al,0x4e(%edi)
 12b:	55                   	push   %ebp
 12c:	20 43 31             	and    %al,0x31(%ebx)
 12f:	31 20                	xor    %esp,(%eax)
 131:	37                   	aaa    
 132:	2e 33 2e             	xor    %cs:(%esi),%ebp
 135:	30 20                	xor    %ah,(%eax)
 137:	2d 6d 33 32 20       	sub    $0x2032336d,%eax
 13c:	2d 6d 74 75 6e       	sub    $0x6e75746d,%eax
 141:	65 3d 67 65 6e 65    	gs cmp $0x656e6567,%eax
 147:	72 69                	jb     1b2 <.debug_str+0x1b2>
 149:	63 20                	arpl   %sp,(%eax)
 14b:	2d 6d 61 72 63       	sub    $0x6372616d,%eax
 150:	68 3d 69 36 38       	push   $0x3836693d
 155:	36 20 2d 67 20 2d 4f 	and    %ch,%ss:0x4f2d2067
 15c:	32 20                	xor    (%eax),%ah
 15e:	2d 66 6e 6f 2d       	sub    $0x2d6f6e66,%eax
 163:	6f                   	outsl  %ds:(%esi),(%dx)
 164:	6d                   	insl   (%dx),%es:(%edi)
 165:	69 74 2d 66 72 61 6d 	imul   $0x656d6172,0x66(%ebp,%ebp,1),%esi
 16c:	65 
 16d:	2d 70 6f 69 6e       	sub    $0x6e696f70,%eax
 172:	74 65                	je     1d9 <.debug_str+0x1d9>
 174:	72 20                	jb     196 <.debug_str+0x196>
 176:	2d 66 66 72 65       	sub    $0x65726666,%eax
 17b:	65 73 74             	gs jae 1f2 <.debug_str+0x1f2>
 17e:	61                   	popa   
 17f:	6e                   	outsb  %ds:(%esi),(%dx)
 180:	64 69 6e 67 00 2f 68 	imul   $0x6f682f00,%fs:0x67(%esi),%ebp
 187:	6f 
 188:	6d                   	insl   (%dx),%es:(%edi)
 189:	65 2f                	gs das 
 18b:	61                   	popa   
 18c:	6c                   	insb   (%dx),%es:(%edi)
 18d:	75 6d                	jne    1fc <.debug_str+0x1fc>
 18f:	6e                   	outsb  %ds:(%esi),(%dx)
 190:	65 2f                	gs das 
 192:	44                   	inc    %esp
 193:	6f                   	outsl  %ds:(%esi),(%dx)
 194:	63 75 6d             	arpl   %si,0x6d(%ebp)
 197:	65 6e                	outsb  %gs:(%esi),(%dx)
 199:	74 73                	je     20e <.debug_str+0x20e>
 19b:	2f                   	das    
 19c:	5a                   	pop    %edx
 19d:	45                   	inc    %ebp
 19e:	4f                   	dec    %edi
 19f:	53                   	push   %ebx
 1a0:	5f                   	pop    %edi
 1a1:	73 6f                	jae    212 <.debug_str+0x212>
 1a3:	61                   	popa   
 1a4:	5f                   	pop    %edi
 1a5:	32 30                	xor    (%eax),%dh
 1a7:	31 38                	xor    %edi,(%eax)
 1a9:	00 72 65             	add    %dh,0x65(%edx)
 1ac:	61                   	popa   
 1ad:	64 79 71             	fs jns 221 <.debug_str+0x221>
 1b0:	75 65                	jne    217 <.debug_str+0x217>
 1b2:	75 65                	jne    219 <.debug_str+0x219>
 1b4:	00 70 62             	add    %dh,0x62(%eax)
 1b7:	61                   	popa   
 1b8:	73 65                	jae    21f <.debug_str+0x21f>
 1ba:	5f                   	pop    %edi
 1bb:	61                   	popa   
 1bc:	64 64 72 00          	fs fs jb 1c0 <.debug_str+0x1c0>
 1c0:	77 72                	ja     234 <.debug_str+0x234>
 1c2:	69 74 65 5f 74 00 67 	imul   $0x65670074,0x5f(%ebp,%eiz,2),%esi
 1c9:	65 
 1ca:	74 5f                	je     22b <.debug_str+0x22b>
 1cc:	50                   	push   %eax
 1cd:	54                   	push   %esp
 1ce:	00 61 6c             	add    %ah,0x6c(%ecx)
 1d1:	6c                   	insb   (%dx),%es:(%edi)
 1d2:	6f                   	outsl  %ds:(%esi),(%dx)
 1d3:	63 5f 66             	arpl   %bx,0x66(%edi)
 1d6:	72 61                	jb     239 <.debug_str+0x239>
 1d8:	6d                   	insl   (%dx),%es:(%edi)
 1d9:	65 00 74 61 73       	add    %dh,%gs:0x73(%ecx,%eiz,2)
 1de:	6b 5f 73 74          	imul   $0x74,0x73(%edi),%ebx
 1e2:	72 75                	jb     259 <.debug_str+0x259>
 1e4:	63 74 00 62          	arpl   %si,0x62(%eax,%eax,1)
 1e8:	69 74 73 00 6c 69 73 	imul   $0x7473696c,0x0(%ebx,%esi,2),%esi
 1ef:	74 
 1f0:	5f                   	pop    %edi
 1f1:	65 6d                	gs insl (%dx),%es:(%edi)
 1f3:	70 74                	jo     269 <.debug_str+0x269>
 1f5:	79 00                	jns    1f7 <.debug_str+0x1f7>
 1f7:	64 65 62 75 67       	fs bound %esi,%gs:0x67(%ebp)
 1fc:	54                   	push   %esp
 1fd:	72 61                	jb     260 <.debug_str+0x260>
 1ff:	70 00                	jo     201 <.debug_str+0x201>
 201:	49                   	dec    %ecx
 202:	4f                   	dec    %edi
 203:	4d                   	dec    %ebp
 204:	61                   	popa   
 205:	70 42                	jo     249 <.debug_str+0x249>
 207:	61                   	popa   
 208:	73 65                	jae    26f <.debug_str+0x26f>
 20a:	41                   	inc    %ecx
 20b:	64 64 72 65          	fs fs jb 274 <.debug_str+0x274>
 20f:	73 73                	jae    284 <.debug_str+0x284>
 211:	00 70 6f             	add    %dh,0x6f(%eax)
 214:	73 73                	jae    289 <.debug_str+0x289>
 216:	69 62 6c 65 50 49 44 	imul   $0x44495065,0x6c(%edx),%esp
 21d:	00 64 69 72          	add    %ah,0x72(%ecx,%ebp,2)
 221:	5f                   	pop    %edi
 222:	70 61                	jo     285 <.debug_str+0x285>
 224:	67 65 73 00          	addr16 gs jae 228 <.debug_str+0x228>
 228:	6e                   	outsb  %ds:(%esi),(%dx)
 229:	66 72 61             	data16 jb 28d <.debug_str+0x28d>
 22c:	6d                   	insl   (%dx),%es:(%edi)
 22d:	65 73 00             	gs jae 230 <.debug_str+0x230>
 230:	44                   	inc    %esp
 231:	57                   	push   %edi
 232:	6f                   	outsl  %ds:(%esi),(%dx)
 233:	72 64                	jb     299 <.debug_str+0x299>
 235:	00 70 65             	add    %dh,0x65(%eax)
 238:	72 6d                	jb     2a7 <.debug_str+0x2a7>
 23a:	69 73 73 69 6f 6e 73 	imul   $0x736e6f69,0x73(%ebx),%esi
 241:	00 61 76             	add    %ah,0x76(%ecx)
 244:	61                   	popa   
 245:	69 6c 00 61 6c 6c 6f 	imul   $0x636f6c6c,0x61(%eax,%eax,1),%ebp
 24c:	63 
 24d:	61                   	popa   
 24e:	74 65                	je     2b5 <.debug_str+0x2b5>
 250:	5f                   	pop    %edi
 251:	44                   	inc    %esp
 252:	49                   	dec    %ecx
 253:	52                   	push   %edx
 254:	00 65 6e             	add    %ah,0x6e(%ebp)
 257:	74 72                	je     2cb <.debug_str+0x2cb>
 259:	79 00                	jns    25b <.debug_str+0x25b>
 25b:	63 68 65             	arpl   %bp,0x65(%eax)
 25e:	63 6b 5f             	arpl   %bp,0x5f(%ebx)
 261:	66 64 00 75 6e       	data16 add %dh,%fs:0x6e(%ebp)
 266:	73 69                	jae    2d1 <.debug_str+0x2d1>
 268:	67 6e                	outsb  %ds:(%si),(%dx)
 26a:	65 64 20 63 68       	gs and %ah,%fs:0x68(%ebx)
 26f:	61                   	popa   
 270:	72 00                	jb     272 <.debug_str+0x272>
 272:	70 68                	jo     2dc <.debug_str+0x2dc>
 274:	79 73                	jns    2e9 <.debug_str+0x2e9>
 276:	5f                   	pop    %edi
 277:	6d                   	insl   (%dx),%es:(%edi)
 278:	65 6d                	gs insl (%dx),%es:(%edi)
 27a:	00 73 79             	add    %dh,0x79(%ebx)
 27d:	73 5f                	jae    2de <.debug_str+0x2de>
 27f:	77 72                	ja     2f3 <.debug_str+0x2f3>
 281:	69 74 65 00 76 61 6c 	imul   $0x696c6176,0x0(%ebp,%eiz,2),%esi
 288:	69 
 289:	64 00 66 72          	add    %ah,%fs:0x72(%esi)
 28d:	65 65 71 75          	gs gs jno 306 <.debug_str+0x306>
 291:	65 75 65             	gs jne 2f9 <.debug_str+0x2f9>
 294:	00 50 72             	add    %dl,0x72(%eax)
 297:	65 76 69             	gs jbe 303 <.debug_str+0x303>
 29a:	6f                   	outsl  %ds:(%esi),(%dx)
 29b:	75 73                	jne    310 <.debug_str+0x310>
 29d:	54                   	push   %esp
 29e:	61                   	popa   
 29f:	73 6b                	jae    30c <.debug_str+0x30c>
 2a1:	4c                   	dec    %esp
 2a2:	69 6e 6b 00 65 6e 74 	imul   $0x746e6500,0x6b(%esi),%ebp
 2a9:	72 00                	jb     2ab <.debug_str+0x2ab>
 2ab:	62 65 73             	bound  %esp,0x73(%ebp)
 2ae:	74 00                	je     2b0 <.debug_str+0x2b0>
 2b0:	75 6e                	jne    320 <.debug_str+0x320>
 2b2:	73 69                	jae    31d <.debug_str+0x31d>
 2b4:	67 6e                	outsb  %ds:(%si),(%dx)
 2b6:	65 64 20 69 6e       	gs and %ch,%fs:0x6e(%ecx)
 2bb:	74 00                	je     2bd <.debug_str+0x2bd>
 2bd:	6c                   	insb   (%dx),%es:(%edi)
 2be:	69 73 74 5f 68 65 61 	imul   $0x6165685f,0x74(%ebx),%esi
 2c5:	64 5f                	fs pop %edi
 2c7:	74 6f                	je     338 <.debug_str+0x338>
 2c9:	5f                   	pop    %edi
 2ca:	74 61                	je     32d <.debug_str+0x32d>
 2cc:	73 6b                	jae    339 <.debug_str+0x339>
 2ce:	5f                   	pop    %edi
 2cf:	73 74                	jae    345 <.debug_str+0x345>
 2d1:	72 75                	jb     348 <.debug_str+0x348>
 2d3:	63 74 00 73          	arpl   %si,0x73(%eax,%eax,1)
 2d7:	74 61                	je     33a <.debug_str+0x33a>
 2d9:	63 6b 00             	arpl   %bp,0x0(%ebx)
 2dc:	64 69 72 74 79 00 63 	imul   $0x75630079,%fs:0x74(%edx),%esi
 2e3:	75 
 2e4:	72 72                	jb     358 <.debug_str+0x358>
 2e6:	65 6e                	outsb  %gs:(%esi),(%dx)
 2e8:	74 00                	je     2ea <.debug_str+0x2ea>
 2ea:	6e                   	outsb  %ds:(%esi),(%dx)
 2eb:	6f                   	outsl  %ds:(%esi),(%dx)
 2ec:	6e                   	outsb  %ds:(%esi),(%dx)
 2ed:	65 31 30             	xor    %esi,%gs:(%eax)
 2f0:	00 6e 6f             	add    %ch,0x6f(%esi)
 2f3:	6e                   	outsb  %ds:(%esi),(%dx)
 2f4:	65 31 31             	xor    %esi,%gs:(%ecx)
 2f7:	00 73 79             	add    %dh,0x79(%ebx)
 2fa:	73 2e                	jae    32a <.debug_str+0x32a>
 2fc:	63 00                	arpl   %ax,(%eax)
 2fe:	75 73                	jne    373 <.debug_str+0x373>
 300:	65 72 00             	gs jb  303 <.debug_str+0x303>
 303:	73 68                	jae    36d <.debug_str+0x36d>
 305:	6f                   	outsl  %ds:(%esi),(%dx)
 306:	72 74                	jb     37c <.debug_str+0x37c>
 308:	20 75 6e             	and    %dh,0x6e(%ebp)
 30b:	73 69                	jae    376 <.debug_str+0x376>
 30d:	67 6e                	outsb  %ds:(%si),(%dx)
 30f:	65 64 20 69 6e       	gs and %ch,%fs:0x6e(%ecx)
 314:	74 00                	je     316 <.debug_str+0x316>
 316:	65 73 70             	gs jae 389 <.debug_str+0x389>
 319:	30 00                	xor    %al,(%eax)
 31b:	65 73 70             	gs jae 38e <.debug_str+0x38e>
 31e:	31 00                	xor    %eax,(%eax)
 320:	65 73 70             	gs jae 393 <.debug_str+0x393>
 323:	32 00                	xor    (%eax),%al
 325:	63 68 61             	arpl   %bp,0x61(%eax)
 328:	72 00                	jb     32a <.debug_str+0x32a>
 32a:	44                   	inc    %esp
 32b:	65 73 63             	gs jae 391 <.debug_str+0x391>
 32e:	72 69                	jb     399 <.debug_str+0x399>
 330:	70 74                	jo     3a6 <.debug_str+0x3a6>
 332:	6f                   	outsl  %ds:(%esi),(%dx)
 333:	72 00                	jb     335 <.debug_str+0x335>
 335:	63 75 72             	arpl   %si,0x72(%ebp)
 338:	72 00                	jb     33a <.debug_str+0x33a>
 33a:	73 79                	jae    3b5 <.debug_str+0x3b5>
 33c:	73 5f                	jae    39d <.debug_str+0x39d>
 33e:	77 72                	ja     3b2 <.debug_str+0x3b2>
 340:	69 74 65 5f 63 6f 6e 	imul   $0x736e6f63,0x5f(%ebp,%eiz,2),%esi
 347:	73 
 348:	6f                   	outsl  %ds:(%esi),(%dx)
 349:	6c                   	insb   (%dx),%es:(%edi)
 34a:	65 00 70 72          	add    %dh,%gs:0x72(%eax)
 34e:	6f                   	outsl  %ds:(%esi),(%dx)
 34f:	63 65 73             	arpl   %sp,0x73(%ebp)
 352:	73 5f                	jae    3b3 <.debug_str+0x3b3>
 354:	50                   	push   %eax
 355:	54                   	push   %esp
 356:	5f                   	pop    %edi
 357:	6e                   	outsb  %ds:(%esi),(%dx)
 358:	65 77 00             	gs ja  35b <.debug_str+0x35b>
 35b:	61                   	popa   
 35c:	75 78                	jne    3d6 <.debug_str+0x3d6>
 35e:	69 6c 69 61 72 00 74 	imul   $0x61740072,0x61(%ecx,%ebp,2),%ebp
 365:	61 
 366:	73 6b                	jae    3d3 <.debug_str+0x3d3>
 368:	5f                   	pop    %edi
 369:	75 6e                	jne    3d9 <.debug_str+0x3d9>
 36b:	69 6f 6e 00 73 79 73 	imul   $0x73797300,0x6e(%edi),%ebp
 372:	5f                   	pop    %edi
 373:	67 65 74 74          	addr16 gs je 3eb <.debug_str+0x3eb>
 377:	69 6d 65 00 64 65 6c 	imul   $0x6c656400,0x65(%ebp),%ebp
 37e:	5f                   	pop    %edi
 37f:	73 73                	jae    3f4 <.debug_str+0x3f4>
 381:	5f                   	pop    %edi
 382:	70 61                	jo     3e5 <.debug_str+0x3e5>
 384:	67 00 62 65          	add    %ah,0x65(%bp,%si)
 388:	73 74                	jae    3fe <.debug_str+0x3fe>
 38a:	63 6f 75             	arpl   %bp,0x75(%edi)
 38d:	6e                   	outsb  %ds:(%esi),(%dx)
 38e:	74 00                	je     390 <.debug_str+0x390>
 390:	62 75 66             	bound  %esi,0x66(%ebp)
 393:	66 65 72 00          	data16 gs jb 397 <.debug_str+0x397>
 397:	66 72 65             	data16 jb 3ff <.debug_str+0x3ff>
 39a:	65 5f                	gs pop %edi
 39c:	66 72 61             	data16 jb 400 <.debug_str+0x400>
 39f:	6d                   	insl   (%dx),%es:(%edi)
 3a0:	65 00 6c 6f 6e       	add    %ch,%gs:0x6e(%edi,%ebp,2)
 3a5:	67 20 75 6e          	and    %dh,0x6e(%di)
 3a9:	73 69                	jae    414 <.debug_str+0x414>
 3ab:	67 6e                	outsb  %ds:(%si),(%dx)
 3ad:	65 64 20 69 6e       	gs and %ch,%fs:0x6e(%ecx)
 3b2:	74 00                	je     3b4 <.debug_str+0x3b4>
 3b4:	73 79                	jae    42f <.debug_str+0x42f>
 3b6:	73 5f                	jae    417 <.debug_str+0x417>
 3b8:	66 6f                	outsw  %ds:(%esi),(%dx)
 3ba:	72 6b                	jb     427 <.debug_str+0x427>
 3bc:	00 70 73             	add    %dh,0x73(%eax)
 3bf:	5f                   	pop    %edi
 3c0:	70 61                	jo     423 <.debug_str+0x423>
 3c2:	74 00                	je     3c4 <.debug_str+0x3c4>
 3c4:	71 75                	jno    43b <.debug_str+0x43b>
 3c6:	61                   	popa   
 3c7:	6e                   	outsb  %ds:(%esi),(%dx)
 3c8:	74 75                	je     43f <.debug_str+0x43f>
 3ca:	6d                   	insl   (%dx),%es:(%edi)
 3cb:	00 73 69             	add    %dh,0x69(%ebx)
 3ce:	7a 65                	jp     435 <.debug_str+0x435>
 3d0:	00 63 61             	add    %ah,0x61(%ebx)
 3d3:	63 68 65             	arpl   %bp,0x65(%eax)
 3d6:	5f                   	pop    %edi
 3d7:	64 00 6e 6f          	add    %ch,%fs:0x6f(%esi)
 3db:	6e                   	outsb  %ds:(%esi),(%dx)
 3dc:	65 31 00             	xor    %eax,%gs:(%eax)
 3df:	6e                   	outsb  %ds:(%esi),(%dx)
 3e0:	6f                   	outsl  %ds:(%esi),(%dx)
 3e1:	6e                   	outsb  %ds:(%esi),(%dx)
 3e2:	65 32 00             	xor    %gs:(%eax),%al
 3e5:	6e                   	outsb  %ds:(%esi),(%dx)
 3e6:	6f                   	outsl  %ds:(%esi),(%dx)
 3e7:	6e                   	outsb  %ds:(%esi),(%dx)
 3e8:	65 33 00             	xor    %gs:(%eax),%eax
 3eb:	6e                   	outsb  %ds:(%esi),(%dx)
 3ec:	6f                   	outsl  %ds:(%esi),(%dx)
 3ed:	6e                   	outsb  %ds:(%esi),(%dx)
 3ee:	65 34 00             	gs xor $0x0,%al
 3f1:	6e                   	outsb  %ds:(%esi),(%dx)
 3f2:	6f                   	outsl  %ds:(%esi),(%dx)
 3f3:	6e                   	outsb  %ds:(%esi),(%dx)
 3f4:	65 35 00 6e 6f 6e    	gs xor $0x6e6f6e00,%eax
 3fa:	65 36 00 6e 6f       	gs add %ch,%ss:0x6f(%esi)
 3ff:	6e                   	outsb  %ds:(%esi),(%dx)
 400:	65 37                	gs aaa 
 402:	00 6e 6f             	add    %ch,0x6f(%esi)
 405:	6e                   	outsb  %ds:(%esi),(%dx)
 406:	65 38 00             	cmp    %al,%gs:(%eax)
 409:	6e                   	outsb  %ds:(%esi),(%dx)
 40a:	6f                   	outsl  %ds:(%esi),(%dx)
 40b:	6e                   	outsb  %ds:(%esi),(%dx)
 40c:	65 39 00             	cmp    %eax,%gs:(%eax)
 40f:	70 72                	jo     483 <sys_exit+0x3>
 411:	65 73 65             	gs jae 479 <sys_fork+0x409>
 414:	6e                   	outsb  %ds:(%esi),(%dx)
 415:	74 00                	je     417 <.debug_str+0x417>
 417:	65 46                	gs inc %esi
 419:	6c                   	insb   (%dx),%es:(%edi)
 41a:	61                   	popa   
 41b:	67 73 00             	addr16 jae 41e <.debug_str+0x41e>
 41e:	70 72                	jo     492 <sys_write+0x2>
 420:	65 76 00             	gs jbe 423 <.debug_str+0x423>
 423:	67 65 74 5f          	addr16 gs je 486 <sys_exit+0x6>
 427:	44                   	inc    %esp
 428:	49                   	dec    %ecx
 429:	52                   	push   %edx
 42a:	00 6c 69 73          	add    %ch,0x73(%ecx,%ebp,2)
 42e:	74 5f                	je     48f <sys_exit+0xf>
 430:	61                   	popa   
 431:	64 64 5f             	fs fs pop %edi
 434:	74 61                	je     497 <sys_write+0x7>
 436:	69 6c 00 73 65 74 5f 	imul   $0x735f7465,0x73(%eax,%eax,1),%ebp
 43d:	73 
 43e:	73 5f                	jae    49f <sys_write+0xf>
 440:	70 61                	jo     4a3 <sys_write+0x13>
 442:	67 00 6c 69          	add    %ch,0x69(%si)
 446:	73 74                	jae    4bc <sys_write+0x2c>
 448:	5f                   	pop    %edi
 449:	64 65 6c             	fs gs insb (%dx),%es:(%edi)
 44c:	00 6e 65             	add    %ch,0x65(%esi)
 44f:	78 74                	js     4c5 <sys_write+0x35>
 451:	00 6d 69             	add    %ch,0x69(%ebp)
 454:	64 42                	fs inc %edx
 456:	61                   	popa   
 457:	73 65                	jae    4be <sys_write+0x2e>
	...

Disassembly of section .comment:

00000000 <.comment>:
   0:	00 47 43             	add    %al,0x43(%edi)
   3:	43                   	inc    %ebx
   4:	3a 20                	cmp    (%eax),%ah
   6:	28 55 62             	sub    %dl,0x62(%ebp)
   9:	75 6e                	jne    79 <sys_fork+0x9>
   b:	74 75                	je     82 <sys_fork+0x12>
   d:	20 37                	and    %dh,(%edi)
   f:	2e 33 2e             	xor    %cs:(%esi),%ebp
  12:	30 2d 31 36 75 62    	xor    %ch,0x62753631
  18:	75 6e                	jne    88 <sys_fork+0x18>
  1a:	74 75                	je     91 <sys_fork+0x21>
  1c:	33 29                	xor    (%ecx),%ebp
  1e:	20 37                	and    %dh,(%edi)
  20:	2e 33 2e             	xor    %cs:(%esi),%ebp
  23:	30 00                	xor    %al,(%eax)

Disassembly of section .eh_frame:

00000000 <.eh_frame>:
   0:	14 00                	adc    $0x0,%al
   2:	00 00                	add    %al,(%eax)
   4:	00 00                	add    %al,(%eax)
   6:	00 00                	add    %al,(%eax)
   8:	01 7a 52             	add    %edi,0x52(%edx)
   b:	00 01                	add    %al,(%ecx)
   d:	7c 08                	jl     17 <.eh_frame+0x17>
   f:	01 1b                	add    %ebx,(%ebx)
  11:	0c 04                	or     $0x4,%al
  13:	04 88                	add    $0x88,%al
  15:	01 00                	add    %eax,(%eax)
  17:	00 1c 00             	add    %bl,(%eax,%eax,1)
  1a:	00 00                	add    %al,(%eax)
  1c:	1c 00                	sbb    $0x0,%al
  1e:	00 00                	add    %al,(%eax)
  20:	00 00                	add    %al,(%eax)
  22:	00 00                	add    %al,(%eax)
  24:	07                   	pop    %es
  25:	00 00                	add    %al,(%eax)
  27:	00 00                	add    %al,(%eax)
  29:	41                   	inc    %ecx
  2a:	0e                   	push   %cs
  2b:	08 85 02 44 0d 05    	or     %al,0x50d4402(%ebp)
  31:	41                   	inc    %ecx
  32:	c5 0c 04             	lds    (%esp,%eax,1),%ecx
  35:	04 00                	add    $0x0,%al
  37:	00 24 00             	add    %ah,(%eax,%eax,1)
  3a:	00 00                	add    %al,(%eax)
  3c:	3c 00                	cmp    $0x0,%al
  3e:	00 00                	add    %al,(%eax)
  40:	10 00                	adc    %al,(%eax)
  42:	00 00                	add    %al,(%eax)
  44:	27                   	daa    
  45:	00 00                	add    %al,(%eax)
  47:	00 00                	add    %al,(%eax)
  49:	41                   	inc    %ecx
  4a:	0e                   	push   %cs
  4b:	08 85 02 42 0d 05    	or     %al,0x50d4202(%ebp)
  51:	55                   	push   %ebp
  52:	0a c5                	or     %ch,%al
  54:	0c 04                	or     $0x4,%al
  56:	04 48                	add    $0x48,%al
  58:	0b 46 c5             	or     -0x3b(%esi),%eax
  5b:	0c 04                	or     $0x4,%al
  5d:	04 00                	add    $0x0,%al
  5f:	00 1c 00             	add    %bl,(%eax,%eax,1)
  62:	00 00                	add    %al,(%eax)
  64:	64 00 00             	add    %al,%fs:(%eax)
  67:	00 40 00             	add    %al,0x0(%eax)
  6a:	00 00                	add    %al,(%eax)
  6c:	0a 00                	or     (%eax),%al
  6e:	00 00                	add    %al,(%eax)
  70:	00 41 0e             	add    %al,0xe(%ecx)
  73:	08 85 02 47 0d 05    	or     %al,0x50d4702(%ebp)
  79:	41                   	inc    %ecx
  7a:	c5 0c 04             	lds    (%esp,%eax,1),%ecx
  7d:	04 00                	add    $0x0,%al
  7f:	00 20                	add    %ah,(%eax)
  81:	00 00                	add    %al,(%eax)
  83:	00 84 00 00 00 50 00 	add    %al,0x500000(%eax,%eax,1)
  8a:	00 00                	add    %al,(%eax)
  8c:	1f                   	pop    %ds
  8d:	00 00                	add    %al,(%eax)
  8f:	00 00                	add    %al,(%eax)
  91:	41                   	inc    %ecx
  92:	0e                   	push   %cs
  93:	08 85 02 42 0d 05    	or     %al,0x50d4202(%ebp)
  99:	41                   	inc    %ecx
  9a:	83 03 59             	addl   $0x59,(%ebx)
  9d:	c3                   	ret    
  9e:	41                   	inc    %ecx
  9f:	c5 0c 04             	lds    (%esp,%eax,1),%ecx
  a2:	04 00                	add    $0x0,%al
  a4:	3c 00                	cmp    $0x0,%al
  a6:	00 00                	add    %al,(%eax)
  a8:	a8 00                	test   $0x0,%al
  aa:	00 00                	add    %al,(%eax)
  ac:	70 00                	jo     ae <.eh_frame+0xae>
  ae:	00 00                	add    %al,(%eax)
  b0:	09 04 00             	or     %eax,(%eax,%eax,1)
  b3:	00 00                	add    %al,(%eax)
  b5:	41                   	inc    %ecx
  b6:	0e                   	push   %cs
  b7:	08 85 02 42 0d 05    	or     %al,0x50d4202(%ebp)
  bd:	43                   	inc    %ebx
  be:	87 03                	xchg   %eax,(%ebx)
  c0:	86 04 83             	xchg   %al,(%ebx,%eax,4)
  c3:	05 03 c4 03 0a       	add    $0xa03c403,%eax
  c8:	c3                   	ret    
  c9:	41                   	inc    %ecx
  ca:	c6 41 c7 41          	movb   $0x41,-0x39(%ecx)
  ce:	c5 0c 04             	lds    (%esp,%eax,1),%ecx
  d1:	04 41                	add    $0x41,%al
  d3:	0b 70 0a             	or     0xa(%eax),%esi
  d6:	c3                   	ret    
  d7:	41                   	inc    %ecx
  d8:	c6 41 c7 41          	movb   $0x41,-0x39(%ecx)
  dc:	c5 0c 04             	lds    (%esp,%eax,1),%ecx
  df:	04 41                	add    $0x41,%al
  e1:	0b 00                	or     (%eax),%eax
  e3:	00 1c 00             	add    %bl,(%eax,%eax,1)
  e6:	00 00                	add    %al,(%eax)
  e8:	e8 00 00 00 80       	call   800000ed <sys_gettime+0x7ffffb7d>
  ed:	04 00                	add    $0x0,%al
  ef:	00 05 00 00 00 00    	add    %al,0x0
  f5:	41                   	inc    %ecx
  f6:	0e                   	push   %cs
  f7:	08 85 02 42 0d 05    	or     %al,0x50d4202(%ebp)
  fd:	41                   	inc    %ecx
  fe:	c5 0c 04             	lds    (%esp,%eax,1),%ecx
 101:	04 00                	add    $0x0,%al
 103:	00 3c 00             	add    %bh,(%eax,%eax,1)
 106:	00 00                	add    %al,(%eax)
 108:	08 01                	or     %al,(%ecx)
 10a:	00 00                	add    %al,(%eax)
 10c:	90                   	nop
 10d:	04 00                	add    $0x0,%al
 10f:	00 dc                	add    %bl,%ah
 111:	00 00                	add    %al,(%eax)
 113:	00 00                	add    %al,(%eax)
 115:	41                   	inc    %ecx
 116:	0e                   	push   %cs
 117:	08 85 02 42 0d 05    	or     %al,0x50d4202(%ebp)
 11d:	43                   	inc    %ebx
 11e:	87 03                	xchg   %eax,(%ebx)
 120:	86 04 83             	xchg   %al,(%ebx,%eax,4)
 123:	05 02 96 0a c3       	add    $0xc30a9602,%eax
 128:	41                   	inc    %ecx
 129:	c6 41 c7 41          	movb   $0x41,-0x39(%ecx)
 12d:	c5 0c 04             	lds    (%esp,%eax,1),%ecx
 130:	04 41                	add    $0x41,%al
 132:	0b 54 0a c3          	or     -0x3d(%edx,%ecx,1),%edx
 136:	41                   	inc    %ecx
 137:	c6 41 c7 41          	movb   $0x41,-0x39(%ecx)
 13b:	c5 0c 04             	lds    (%esp,%eax,1),%ecx
 13e:	04 41                	add    $0x41,%al
 140:	0b 00                	or     (%eax),%eax
 142:	00 00                	add    %al,(%eax)
 144:	1c 00                	sbb    $0x0,%al
 146:	00 00                	add    %al,(%eax)
 148:	48                   	dec    %eax
 149:	01 00                	add    %eax,(%eax)
 14b:	00 70 05             	add    %dh,0x5(%eax)
 14e:	00 00                	add    %al,(%eax)
 150:	17                   	pop    %ss
 151:	00 00                	add    %al,(%eax)
 153:	00 00                	add    %al,(%eax)
 155:	4b                   	dec    %ebx
 156:	0e                   	push   %cs
 157:	08 85 02 48 0d 05    	or     %al,0x50d4802(%ebp)
 15d:	41                   	inc    %ecx
 15e:	c5 0c 04             	lds    (%esp,%eax,1),%ecx
 161:	04 00                	add    $0x0,%al
 163:	00 10                	add    %dl,(%eax)
 165:	00 00                	add    %al,(%eax)
 167:	00 68 01             	add    %ch,0x1(%eax)
 16a:	00 00                	add    %al,(%eax)
 16c:	00 00                	add    %al,(%eax)
 16e:	00 00                	add    %al,(%eax)
 170:	04 00                	add    $0x0,%al
 172:	00 00                	add    %al,(%eax)
 174:	00 00                	add    %al,(%eax)
 176:	00 00                	add    %al,(%eax)
 178:	10 00                	adc    %al,(%eax)
 17a:	00 00                	add    %al,(%eax)
 17c:	7c 01                	jl     17f <.eh_frame+0x17f>
 17e:	00 00                	add    %al,(%eax)
 180:	00 00                	add    %al,(%eax)
 182:	00 00                	add    %al,(%eax)
 184:	04 00                	add    $0x0,%al
 186:	00 00                	add    %al,(%eax)
 188:	00 00                	add    %al,(%eax)
	...
